(dp1
S'schengen'
p2
VSH
p3
sS'boilersuit'
p4
VB
sS'unice'
p5
VY
sS'geresta'
p6
VJH
p7
sS'collating'
p8
VK
sS'iuris'
p9
VY
sS'souladakis'
p10
VS
sS'batasuna'
p11
VB
sS'peripheries'
p12
VP
sS'veux'
p13
VV
sS'jeopardising'
p14
VJH
p15
sS'crisex'
p16
VK
sS'velzen'
p17
VV
sS'andalucia'
p18
VAE
p19
sS'characterises'
p20
VK
sS'parit'
p21
VP
sS'neighbours'
p22
VN
sS'brempt'
p23
VB
sS'characterised'
p24
VK
sS'categorisation'
p25
VK
sS'derogate'
p26
VD
sS'environnement'
p27
VEH
p28
sS'rashly'
p29
VR
sS'adige'
p30
VAE
p31
sS'levelling'
p32
VL
sS'jaca'
p33
VJH
p34
sS'achievability'
p35
VEY
p36
sS'murcia'
p37
VM
sS'subsidising'
p38
VS
sS'globalising'
p39
VG
sS'subprogrammes'
p40
VS
sS'markov'
p41
VM
sS'unauthorised'
p42
VAH
p43
sS'fogh'
p44
VF
sS'chev'
p45
VCH
p46
sS'interparliamentary'
p47
VIH
p48
sS'prising'
p49
VP
sS'capitalisation'
p50
VK
sS'ilisu'
p51
VIH
p52
sS'rouen'
p53
VR
sS'cantabrian'
p54
VK
sS'draftsperson'
p55
VD
sS'abogado'
p56
VAA
p57
sS'nen'
p58
VN
sS'faecal'
p59
VF
sS'atlantique'
p60
VAE
p61
sS'nea'
p62
VN
sS'alavanos'
p63
VAE
p64
sS'sittings'
p65
VS
sS'ner'
p66
VN
sS'phthalates'
p67
VF
sS'watercourse'
p68
VW
sS'unmotivated'
p69
VAH
p70
sS'hemicycle'
p71
VHH
p72
sS'schierhuber'
p73
VSH
p74
sS'repugnance'
p75
VR
sS'ventilators'
p76
VV
sS'specialise'
p77
VS
sS'mep'
p78
VM
sS'mediagoguery'
p79
VM
sS'feedstuffs'
p80
VF
sS'antisemitic'
p81
VAE
p82
sS'chlorides'
p83
VK
sS'karit'
p84
VK
sS'yarmouth'
p85
VY
sS'scharping'
p86
VSH
p87
sS'oloron'
p88
VAA
p89
sS'ermua'
p90
VER
p91
sS'populaire'
p92
VP
sS'nulla'
p93
VN
sS'summarising'
p94
VS
sS'criticise'
p95
VK
sS'remedium'
p96
VR
sS'lldcs'
p97
VL
sS'sympathise'
p98
VS
sS'specialising'
p99
VS
sS'pontevedra'
p100
VP
sS'exceedance'
p101
VIH
p102
sS'cloven'
p103
VK
sS'rationalise'
p104
VR
sS'dalmau'
p105
VD
sS'eurojust'
p106
VY
sS'imperilling'
p107
VIH
p108
sS'tranquillity'
p109
VT
sS'pomes'
p110
VP
sS'antidemocratic'
p111
VAE
p112
sS'nement'
p113
VN
sS'supranationally'
p114
VS
sS'oarsmen'
p115
VAO
p116
sS'enfopol'
p117
VEH
p118
sS'muss'
p119
VM
sS'resurfaces'
p120
VR
sS'equilateral'
p121
VEH
p122
sS'jeopardises'
p123
VJH
p124
sS'camre'
p125
VK
sS'civilisations'
p126
VS
sS'jeopardised'
p127
VJH
p128
sS'mp'
p129
VEH
p130
sS'radicalisation'
p131
VR
sS'quaestor'
p132
VK
sS'hayfork'
p133
VHH
p134
sS'envisaging'
p135
VEH
p136
sS'microcredits'
p137
VM
sS'teratogenicity'
p138
VT
sS'frescos'
p139
VF
sS'gats'
p140
VG
sS'margallo'
p141
VM
sS'hor'
p142
VHH
p143
sS'iiia'
p144
VIY
p145
sS'iiic'
p146
VAY
p147
sS'finalise'
p148
VF
sS'confederal'
p149
VK
sS'utilise'
p150
VY
sS'memoires'
p151
VM
sS'carinthia'
p152
VK
sS'underhand'
p153
VAH
p154
sS'publicised'
p155
VP
sS'disassembly'
p156
VD
sS'undesired'
p157
VAH
p158
sS'endeavoured'
p159
VEH
p160
sS'rouses'
p161
VR
sS'ewc'
p162
VEH
p163
sS'acidifying'
p164
VAH
p165
sS'parcours'
p166
VP
sS'sterilisation'
p167
VS
sS'offal'
p168
VAH
p169
sS'cascais'
p170
VK
sS'extents'
p171
VIH
p172
sS'europeanisation'
p173
VY
sS'fifg'
p174
VF
sS'priding'
p175
VP
sS'shipwrecked'
p176
VSH
p177
sS'telegrammatic'
p178
VT
sS'feedingstuff'
p179
VF
sS'galician'
p180
VG
sS'anweisungen'
p181
VAE
p182
sS'gligorov'
p183
VG
sS'incoherences'
p184
VIH
p185
sS'inadmissibility'
p186
VIH
p187
sS'literates'
p188
VL
sS'imf'
p189
VIH
p190
sS'cle'
p191
VK
sS'encapsulates'
p192
VEH
p193
sS'carrefours'
p194
VK
sS'ftse'
p195
VEH
p196
sS'jackboot'
p197
VJH
p198
sS'centralising'
p199
VS
sS'reconverted'
p200
VR
sS'colourless'
p201
VK
sS'paronen'
p202
VP
sS'hatzidakis'
p203
VHH
p204
sS'hertfordshire'
p205
VHH
p206
sS'relaunching'
p207
VR
sS'mayoress'
p208
VM
sS'tuberculin'
p209
VT
sS'souchet'
p210
VS
sS'regionalisation'
p211
VR
sS'privatisations'
p212
VP
sS'practising'
p213
VP
sS'extrajudicial'
p214
VIH
p215
sS'domicile'
p216
VD
sS'rt'
p217
VR
sS'rr'
p218
VR
sS'collaborates'
p219
VK
sS'recognising'
p220
VR
sS'sourced'
p221
VS
sS'ry'
p222
VR
sS'sintra'
p223
VS
sS'multicoloured'
p224
VM
sS'rg'
p225
VAA
p226
sS'unromantic'
p227
VAH
p228
sS'rc'
p229
VR
sS'sme'
p230
VS
sS'rh'
p231
VAA
p232
sS'communitisation'
p233
VK
sS'rk'
p234
VR
sS'obnova'
p235
VAH
p236
sS'higgledy'
p237
VHH
p238
sS'bertel'
p239
VB
sS'collation'
p240
VK
sS'mudflats'
p241
VM
sS'sichrovsky'
p242
VS
sS'r4'
p243
VAA
p244
sS'hollowness'
p245
VHH
p246
sS'hainaut'
p247
VHH
p248
sS'redrafts'
p249
VR
sS'att'
p250
VAE
p251
sS'iso'
p252
VIY
p253
sS'isn'
p254
VIH
p255
sS'1970s'
p256
VAH
p257
sS'wipo'
p258
VW
sS'benchmarking'
p259
VB
sS'favoured'
p260
VF
sS'popularise'
p261
VP
sS'officious'
p262
VAH
p263
sS'operability'
p264
VAA
p265
sS'wasn'
p266
VW
sS'underspends'
p267
VAH
p268
sS'movimento'
p269
VM
sS'lega'
p270
VL
sS'activators'
p271
VAE
p272
sS'vitoria'
p273
VV
sS'mamre'
p274
VM
sS'staes'
p275
VS
sS'decentralised'
p276
VD
sS'cabling'
p277
VK
sS'romanies'
p278
VR
sS'sidelining'
p279
VS
sS'a32'
p280
VEY
p281
sS'bjerregaard'
p282
VB
sS'17a'
p283
VD
sS'nh3'
p284
VEH
p285
sS'schroedter'
p286
VSH
p287
sS'entente'
p288
VEH
p289
sS'reactivation'
p290
VR
sS'cisterna'
p291
VS
sS'fossilised'
p292
VF
sS'ghilardotti'
p293
VG
sS'whinging'
p294
VW
sS'democratique'
p295
VD
sS'auctoritas'
p296
VAO
p297
sS'speediness'
p298
VS
sS'administrated'
p299
VAH
p300
sS'myller'
p301
VM
sS'jeopardise'
p302
VJH
p303
sS'unhcr'
p304
VAH
p305
sS'fathomless'
p306
VF
sS'brominated'
p307
VB
sS'drogheda'
p308
VD
sS'communitise'
p309
VK
sS'overstrained'
p310
VOW
p311
sS'sysmin'
p312
VS
sS'denkta'
p313
VD
sS'colourful'
p314
VK
sS'kfor'
p315
VK
sS'paralyse'
p316
VP
sS'enshrining'
p317
VAH
p318
sS'omagh'
p319
VAH
p320
sS'guillemots'
p321
VG
sS'rationalisation'
p322
VR
sS'ohne'
p323
VOW
p324
sS'lothar'
p325
VL
sS'irrigates'
p326
VIH
p327
sS'bse'
p328
VB
sS'ionising'
p329
VAY
p330
sS'untempted'
p331
VAH
p332
sS'mobilised'
p333
VM
sS'lacuna'
p334
VL
sS'abh'
p335
VAE
p336
sS'floodtide'
p337
VF
sS'trivialisation'
p338
VT
sS'charterer'
p339
VCH
p340
sS'cynegetic'
p341
VS
sS'discourteous'
p342
VD
sS'inestimable'
p343
VIH
p344
sS'acquis'
p345
VAE
p346
sS'florenz'
p347
VF
sS'communiqu'
p348
VK
sS'ment'
p349
VM
sS'hrt'
p350
VHH
p351
sS'marinho'
p352
VM
sS'discretional'
p353
VD
sS'tsagaropoulou'
p354
VT
sS'ponnambalam'
p355
VP
sS'dm'
p356
VAH
p357
sS'dg'
p358
VJH
p359
sS'banotti'
p360
VB
sS'inelasticity'
p361
VIH
p362
sS'bradbourn'
p363
VB
sS'consorts'
p364
VK
sS'disequilibria'
p365
VD
sS'ispar'
p366
VAY
p367
sS'paedophiles'
p368
VP
sS'asturias'
p369
VAH
p370
sS'transhipped'
p371
VT
sS'ceyhun'
p372
VS
sS'ghettoisation'
p373
VG
sS'superstate'
p374
VS
sS'meps'
p375
VM
sS'ems'
p376
VEH
p377
sS'ardennes'
p378
VAA
p379
sS'flexibilising'
p380
VF
sS'vandalised'
p381
VV
sS'middelhoek'
p382
VM
sS'1960s'
p383
VAH
p384
sS'stegrennan'
p385
VS
sS'helcom'
p386
VHH
p387
sS'supranationalism'
p388
VS
sS'co2'
p389
VK
sS'erhalten'
p390
VER
p391
sS'globalist'
p392
VG
sS'sakellariou'
p393
VS
sS'natura'
p394
VN
sS'liaise'
p395
VL
sS'geberlandes'
p396
VG
sS'visualise'
p397
VV
sS'inspectorates'
p398
VIH
p399
sS'auroi'
p400
VAO
p401
sS'mistimed'
p402
VM
sS'institutionalised'
p403
VIH
p404
sS'rapporteur'
p405
VR
sS'wto'
p406
VT
sS'civilised'
p407
VS
sS'pietrasanta'
p408
VP
sS'vallelersundi'
p409
VV
sS'sympathises'
p410
VS
sS'timescale'
p411
VT
sS'offloading'
p412
VAO
p413
sS'honouring'
p414
VAA
p415
sS'unapplied'
p416
VAH
p417
sS'2nd'
p418
VD
sS'unnoted'
p419
VAH
p420
sS'godparent'
p421
VG
sS'rushailo'
p422
VR
sS'interrelations'
p423
VIH
p424
sS'levante'
p425
VL
sS'organisational'
p426
VAO
p427
sS'berenguer'
p428
VB
sS'recognises'
p429
VR
sS'frf'
p430
VF
sS'criticised'
p431
VK
sS'wisemen'
p432
VW
sS'recognised'
p433
VR
sS'josse'
p434
VJH
p435
sS'criticises'
p436
VK
sS'abuja'
p437
VAE
p438
sS'trojer'
p439
VT
sS'25o'
p440
VN
sS'criminalised'
p441
VK
sS'bizonal'
p442
VB
sS'criminalises'
p443
VK
sS'europeanist'
p444
VY
sS'gnp'
p445
VEH
p446
sS'organisers'
p447
VAO
p448
sS'marginalised'
p449
VM
sS'bandying'
p450
VB
sS'duping'
p451
VD
sS'viii'
p452
VV
sS'aeroplane'
p453
VEH
p454
sS'ix'
p455
VIH
p456
sS'persecutory'
p457
VP
sS'daladier'
p458
VD
sS'derisory'
p459
VD
sS'nationalrat'
p460
VN
sS'iv'
p461
VAY
p462
sS'ii'
p463
VAY
p464
sS'iccat'
p465
VIH
p466
sS'theato'
p467
VTH
p468
sS'impasses'
p469
VIH
p470
sS'phare'
p471
VF
sS'sterckx'
p472
VS
sS'autarkic'
p473
VAO
p474
sS'coastguard'
p475
VK
sS'plimsoll'
p476
VP
sS'authorise'
p477
VAO
p478
sS'sovereignties'
p479
VS
sS'urquiola'
p480
VER
p481
sS'cederschi'
p482
VS
sS'gorsel'
p483
VG
sS'imbues'
p484
VIH
p485
sS'continentalisation'
p486
VK
sS'characterise'
p487
VK
sS'eusko'
p488
VY
sS'emphasise'
p489
VEH
p490
sS'nio'
p491
VN
sS'bolkestein'
p492
VB
sS'rogatory'
p493
VR
sS'mailshots'
p494
VM
sS'nationalisation'
p495
VN
sS'hadera'
p496
VHH
p497
sS'sperkhios'
p498
VS
sS'besque'
p499
VB
sS'centred'
p500
VS
sS'conciliations'
p501
VK
sS'paralysed'
p502
VP
sS'beavering'
p503
VB
sS'howitts'
p504
VHH
p505
sS'juridical'
p506
VJH
p507
sS'prioritising'
p508
VP
sS'crewed'
p509
VK
sS'elmar'
p510
VEH
p511
sS'harmonise'
p512
VHH
p513
sS'dogmas'
p514
VD
sS'yeu'
p515
VY
sS'dunams'
p516
VD
sS'biscay'
p517
VB
sS'europeanise'
p518
VY
sS'illipe'
p519
VIH
p520
sS'igal'
p521
VAY
p522
sS'5g'
p523
VG
sS'5b'
p524
VB
sS'hedkvist'
p525
VHH
p526
sS'calvinists'
p527
VK
sS'sapar'
p528
VS
sS'kotka'
p529
VK
sS'silting'
p530
VS
sS'deckchairs'
p531
VD
sS'scrutinised'
p532
VS
sS'portuguesa'
p533
VP
sS'borr'
p534
VB
sS'wwf'
p535
VW
sS'evincing'
p536
VIY
p537
sS'polycentric'
p538
VP
sS'destabilising'
p539
VD
sS'cns'
p540
VS
sS'fascistic'
p541
VF
sS'unambitious'
p542
VAH
p543
sS'icg'
p544
VIH
p545
sS'honoured'
p546
VAA
p547
sS'ict'
p548
VIH
p549
sS'gollnisch'
p550
VG
sS'ecus'
p551
VIY
p552
sS'mollar'
p553
VM
sS'kandal'
p554
VK
sS'untiringly'
p555
VAH
p556
sS'voinet'
p557
VV
sS'tyres'
p558
VT
sS'eneko'
p559
VEH
p560
sS'collectivity'
p561
VK
sS'rationalisations'
p562
VR
sS'eec'
p563
VIY
p564
sS'depopulated'
p565
VD
sS'coraz'
p566
VK
sS'indigestible'
p567
VIH
p568
sS'dineh'
p569
VD
sS'discourtesy'
p570
VD
sS'ppe'
p571
VP
sS'resourcing'
p572
VR
sS'nought'
p573
VN
sS'22a'
p574
VD
sS'ussr'
p575
VAH
p576
sS'1990s'
p577
VAH
p578
sS'multifunctional'
p579
VM
sS'nihilo'
p580
VN
sS'internalisation'
p581
VIH
p582
sS'abjectly'
p583
VAE
p584
sS'att3'
p585
VAE
p586
sS'noirmoutier'
p587
VN
sS'oomen'
p588
VOW
p589
sS'irreprehensible'
p590
VIH
p591
sS'quousque'
p592
VK
sS'comart'
p593
VK
sS'therefrom'
p594
VTH
p595
sS'foro'
p596
VF
sS'straggly'
p597
VS
sS'solidar'
p598
VS
sS'semiological'
p599
VS
sS'analyse'
p600
VAE
p601
sS'so2'
p602
VS
sS'transregional'
p603
VT
sS'canfranc'
p604
VK
sS'solas'
p605
VS
sS'heteronomous'
p606
VHH
p607
sS'charterers'
p608
VCH
p609
sS'individualised'
p610
VIH
p611
sS'centralist'
p612
VS
sS'hectolitres'
p613
VHH
p614
sS'centralise'
p615
VS
sS'erdf'
p616
VER
p617
sS'dreifuss'
p618
VD
sS'meagre'
p619
VM
sS'fuster'
p620
VF
sS'regurgitating'
p621
VR
sS'regularisation'
p622
VR
sS'liberalise'
p623
VL
sS'phytosanitary'
p624
VF
sS'merseyside'
p625
VM
sS'nl'
p626
VEH
p627
sS'nf'
p628
VEH
p629
sS'unsustainability'
p630
VAH
p631
sS'rspb'
p632
VR
sS'charente'
p633
VCH
p634
sS'mediaeval'
p635
VM
sS'jurti'
p636
VJH
p637
sS'babitsky'
p638
VB
sS'boumediene'
p639
VB
sS'functionalist'
p640
VF
sS'crystallised'
p641
VK
sS'ringholm'
p642
VR
sS'crystallise'
p643
VK
sS'stabex'
p644
VS
sS'aquacultures'
p645
VAE
p646
sS'roo'
p647
VR
sS'amiens'
p648
VEY
p649
sS'reformulating'
p650
VR
sS'tses'
p651
VT
sS'swingeing'
p652
VS
sS'interrelatedness'
p653
VIH
p654
sS'rationalised'
p655
VR
sS'trepca'
p656
VT
sS'smes'
p657
VS
sS'ostreiculture'
p658
VAO
p659
sS'stagiaires'
p660
VS
sS'aspe'
p661
VAE
p662
sS'21st'
p663
VEH
p664
sS'bioplastic'
p665
VB
sS'summarises'
p666
VS
sS'taylorism'
p667
VT
sS'underpins'
p668
VAH
p669
sS'vez'
p670
VV
sS'summarised'
p671
VS
sS'euskal'
p672
VY
sS'caillaux'
p673
VK
sS'additionality'
p674
VAH
p675
sS'georgievski'
p676
VJH
p677
sS'mooted'
p678
VM
sS'decreeing'
p679
VD
sS'salsigne'
p680
VS
sS'mobilise'
p681
VM
sS'bicommunal'
p682
VB
sS'mintoff'
p683
VM
sS'magps'
p684
VM
sS'litigable'
p685
VL
sS'consorted'
p686
VK
sS'viceconte'
p687
VV
sS'bilges'
p688
VB
sS'militarisation'
p689
VM
sS'alicante'
p690
VAE
p691
sS'hler'
p692
VHH
p693
sS'procacci'
p694
VP
sS'petersberg'
p695
VP
sS'landaburu'
p696
VL
sS'generalisations'
p697
VJH
p698
sS'unmik'
p699
VAH
p700
sS'minimis'
p701
VM
sS'unmic'
p702
VAH
p703
sS'tsatsos'
p704
VT
sS'libertatum'
p705
VL
sS'eutrophying'
p706
VY
sS'favour'
p707
VF
sS'hotrec'
p708
VHH
p709
sS'guererro'
p710
VG
sS'ldcs'
p711
VEY
p712
sS'exceedances'
p713
VIH
p714
sS'honour'
p715
VAA
p716
sS'topicality'
p717
VT
sS'plooij'
p718
VP
sS'pretence'
p719
VP
sS'suspensory'
p720
VS
sS'inflationist'
p721
VIH
p722
sS'maximising'
p723
VM
sS'scrapyards'
p724
VS
sS'bp'
p725
VB
sS'alyssandrakis'
p726
VAE
p727
sS'attwooll'
p728
VAH
p729
sS'humour'
p730
VHH
p731
sS'keenness'
p732
VK
sS'queiro'
p733
VK
sS'europol'
p734
VY
sS'fbi'
p735
VEH
p736
sS'sensitised'
p737
VS
sS'ucits'
p738
VY
sS'antiracism'
p739
VAE
p740
sS'docups'
p741
VD
sS'gulags'
p742
VG
sS'altener'
p743
VAO
p744
sS'runnymede'
p745
VR
sS'dimokratia'
p746
VD
sS'msf'
p747
VM
sS'andr'
p748
VAE
p749
sS'untrammelled'
p750
VAH
p751
sS'tsarist'
p752
VT
sS'chocolatl'
p753
VCH
p754
sS'subsidisation'
p755
VS
sS'retrospection'
p756
VR
sS'maximise'
p757
VM
sS'upgradable'
p758
VAH
p759
sS'ovine'
p760
VOW
p761
sS'schoolmasterish'
p762
VS
sS'marginalisation'
p763
VM
sS'emphasising'
p764
VEH
p765
sS'modernised'
p766
VM
sS'ibm'
p767
VIH
p768
sS'socialisation'
p769
VS
sS'lieneman'
p770
VL
sS'cabeza'
p771
VK
sS'bureaux'
p772
VB
sS'indolence'
p773
VIH
p774
sS'usability'
p775
VY
sS'solbes'
p776
VS
sS'gillnets'
p777
VG
sS'1980s'
p778
VAH
p779
sS'detaching'
p780
VD
sS'wordings'
p781
VW
sS'franconian'
p782
VF
sS'litre'
p783
VL
sS'conurbation'
p784
VK
sS'grosset'
p785
VG
sS'naivety'
p786
VN
sS'repulsion'
p787
VR
sS'cecaf'
p788
VS
sS'strictness'
p789
VS
sS'unsorted'
p790
VAH
p791
sS'liberalisation'
p792
VL
sS'neighbourliness'
p793
VN
sS'imbeni'
p794
VIH
p795
sS'motorway'
p796
VM
sS'subrogate'
p797
VS
sS'teratogenic'
p798
VT
sS'pilate'
p799
VP
sS'atat'
p800
VEY
p801
sS'forestier'
p802
VF
sS'deve'
p803
VD
sS'ss'
p804
VEH
p805
sS'sp'
p806
VS
sS'sv'
p807
VEH
p808
sS'idc'
p809
VAY
p810
sS'sj'
p811
VSH
p812
sS'neighbourhoods'
p813
VN
sS'paternalist'
p814
VP
sS'irresolute'
p815
VIH
p816
sS'rumoured'
p817
VR
sS'characterisations'
p818
VK
sS'councillor'
p819
VK
sS'maij'
p820
VM
sS'nol'
p821
VN
sS'applecart'
p822
VAE
p823
sS'recommenced'
p824
VR
sS'illogically'
p825
VIH
p826
sS'widescale'
p827
VW
sS'contravened'
p828
VK
sS'polyaromatic'
p829
VP
sS'nox'
p830
VN
sS'lancker'
p831
VL
sS'contravenes'
p832
VK
sS'nos'
p833
VN
sS'hulten'
p834
VHH
p835
sS'gemelli'
p836
VJH
p837
sS'rebalance'
p838
VR
sS'realise'
p839
VR
sS'hydrological'
p840
VHH
p841
sS'teaux'
p842
VT
sS'terr'
p843
VT
sS'caudillos'
p844
VK
sS'retarders'
p845
VR
sS'kkinen'
p846
VK
sS'tannock'
p847
VT
sS'communitising'
p848
VK
sS'ec'
p849
VEH
p850
sS'ostracised'
p851
VAA
p852
sS'ez'
p853
VEH
p854
sS'eu'
p855
VY
sS'ep'
p856
VEH
p857
sS'neighbourhood'
p858
VN
sS'adduced'
p859
VAH
p860
sS'racan'
p861
VR
sS'ugarten'
p862
VY
sS'ieke'
p863
VIY
p864
sS'alfanyurt'
p865
VAE
p866
sS'busybody'
p867
VB
sS'retrodisplacement'
p868
VR
sS'reformulation'
p869
VR
sS'inessential'
p870
VAY
p871
sS'ospar'
p872
VAA
p873
sS'penalising'
p874
VP
sS'aznar'
p875
VAE
p876
sS'schnellhardt'
p877
VSH
p878
sS'undesirably'
p879
VAH
p880
sS'apologising'
p881
VAH
p882
sS'industrialised'
p883
VIH
p884
sS'invalidity'
p885
VIH
p886
sS'feedingstuffs'
p887
VF
sS'rapporteurs'
p888
VR
sS'reductionist'
p889
VR
sS'reclassifications'
p890
VR
sS'xx'
p891
VK
sS'wallonian'
p892
VW
sS'dramatised'
p893
VD
sS'ocha'
p894
VAA
p895
sS'modernise'
p896
VM
sS'reorganising'
p897
VR
sS'1c'
p898
VS
sS'immortalised'
p899
VIH
p900
sS'modernisation'
p901
VM
sS'clamouring'
p902
VK
sS'asymmetric'
p903
VEY
p904
sS'pnv'
p905
VAE
p906
sS'imputations'
p907
VIH
p908
sS'gastroenteritis'
p909
VG
sS'interreg'
p910
VIH
p911
sS'optimise'
p912
VAA
p913
sS'grammes'
p914
VG
sS'modelled'
p915
VM
sS'eurosceptic'
p916
VY
sS'westendorp'
p917
VW
sS'interservice'
p918
VIH
p919
sS'standardised'
p920
VS
sS'scandalised'
p921
VS
sS'eudor'
p922
VOY
p923
sS'watercourses'
p924
VW
sS'sahel'
p925
VS
sS'urbanisation'
p926
VER
p927
sS'dynamically'
p928
VD
sS'demotivation'
p929
VD
sS'seabirds'
p930
VS
sS'unowned'
p931
VY
sS'barzanti'
p932
VB
sS'karelia'
p933
VK
sS'wct'
p934
VW
sS'leinster'
p935
VL
sS'55th'
p936
VAH
p937
sS'algarve'
p938
VAE
p939
sS'authorising'
p940
VAO
p941
sS'degassing'
p942
VD
sS'errez'
p943
VEH
p944
sS'renan'
p945
VR
sS'transnationality'
p946
VT
sS'bourlanges'
p947
VB
sS'incentivise'
p948
VIH
p949
sS'iniquitous'
p950
VIH
p951
sS'padanian'
p952
VP
sS'folketing'
p953
VF
sS'tarek'
p954
VT
sS'methodologically'
p955
VM
sS'rfler'
p956
VR
sS'colegislator'
p957
VK
sS'antiracist'
p958
VAE
p959
sS'readmission'
p960
VR
sS'rebalanced'
p961
VR
sS'manoeuvre'
p962
VM
sS'competitivity'
p963
VK
sS'blace'
p964
VB
sS'coherences'
p965
VK
sS'godlike'
p966
VG
sS'gew'
p967
VJH
p968
sS'enumerations'
p969
VAH
p970
sS'remoter'
p971
VR
sS'interregional'
p972
VIH
p973
sS'honours'
p974
VAA
p975
sS'sisyphus'
p976
VS
sS'undemanding'
p977
VAH
p978
sS'segni'
p979
VS
sS'cuxhaven'
p980
VK
sS'diversities'
p981
VD
sS'abano'
p982
VAA
p983
sS'cordiale'
p984
VK
sS'ence'
p985
VEH
p986
sS'jettons'
p987
VJH
p988
sS'malmstr'
p989
VM
sS'obejct'
p990
VAH
p991
sS'guterres'
p992
VG
sS'cavalese'
p993
VK
sS'poena'
p994
VP
sS'obfuscates'
p995
VAA
p996
sS'roure'
p997
VR
sS'compliances'
p998
VK
sS'harmonised'
p999
VHH
p1000
sS'legale'
p1001
VL
sS'misinterpretations'
p1002
VM
sS'wallonia'
p1003
VW
sS'foisting'
p1004
VF
sS'feasibilities'
p1005
VF
sS'colours'
p1006
VK
sS'recognisable'
p1007
VR
sS'harmonises'
p1008
VHH
p1009
sS'recourses'
p1010
VR
sS'innovatively'
p1011
VIH
p1012
sS'conformism'
p1013
VK
sS'tacis'
p1014
VT
sS'tanio'
p1015
VT
sS'scrutinise'
p1016
VS
sS'militarised'
p1017
VM
sS'beguin'
p1018
VB
sS'roadworthiness'
p1019
VR
sS'rostock'
p1020
VR
sS'antisemite'
p1021
VAE
p1022
sS'cips'
p1023
VS
sS'rivalled'
p1024
VR
sS'generalisation'
p1025
VJH
p1026
sS'shamefully'
p1027
VSH
p1028
sS'twix'
p1029
VT
sS'harbouring'
p1030
VHH
p1031
sS'marriageable'
p1032
VM
sS'promptness'
p1033
VP
sS'reworded'
p1034
VR
sS'delocalisation'
p1035
VD
sS'mainstreamed'
p1036
VM
sS'millimetre'
p1037
VM
sS'practises'
p1038
VP
sS'korakas'
p1039
VK
sS'cfsp'
p1040
VEH
p1041
sS'arta'
p1042
VAA
p1043
sS'sessional'
p1044
VS
sS'dadaist'
p1045
VD
sS'practised'
p1046
VP
sS'dovetailing'
p1047
VD
sS'renewables'
p1048
VR
sS'spongiform'
p1049
VS
sS'derogation'
p1050
VD
sS'legislations'
p1051
VL
sS'paedophilia'
p1052
VP
sS'precariousness'
p1053
VP
sS'specialised'
p1054
VS
sS'legitimise'
p1055
VL
sS'eib'
p1056
VAY
p1057
sS'efterl'
p1058
VEH
p1059
sS'accessions'
p1060
VAH
p1061
sS'specialises'
p1062
VS
sS'prescriptive'
p1063
VP
sS'demilitarised'
p1064
VD
sS'stabilising'
p1065
VS
sS'caprine'
p1066
VK
sS'echternach'
p1067
VEH
p1068
sS'blak'
p1069
VB
sS'trentin'
p1070
VT
sS'quaestors'
p1071
VK
sS'litres'
p1072
VL
sS'clientelism'
p1073
VK
sS'turmes'
p1074
VT
sS'geostrategic'
p1075
VJH
p1076
sS'pau'
p1077
VP
sS'ultimum'
p1078
VAH
p1079
sS'enquiries'
p1080
VEH
p1081
sS'putin'
p1082
VP
sS'legitimises'
p1083
VL
sS'riis'
p1084
VR
sS'dogmatisers'
p1085
VD
sS'ronique'
p1086
VR
sS'despatched'
p1087
VD
sS'sahrawi'
p1088
VS
sS'ois'
p1089
VOY
p1090
sS'legitimised'
p1091
VL
sS'pures'
p1092
VP
sS'politicisation'
p1093
VP
sS'biotopes'
p1094
VB
sS'nchez'
p1095
VN
sS'codex'
p1096
VK
sS'taxifolia'
p1097
VT
sS'frontispiece'
p1098
VF
sS'rewording'
p1099
VR
sS'grappa'
p1100
VG
sS'renationalised'
p1101
VR
sS'gdp'
p1102
VJH
p1103
sS'anthropometric'
p1104
VAE
p1105
sS'comitology'
p1106
VK
sS'criminalise'
p1107
VK
sS'fvo'
p1108
VF
sS'xxviiith'
p1109
VS
sS'euros'
p1110
VY
sS'preventatively'
p1111
VP
sS'favouring'
p1112
VF
sS'bowis'
p1113
VB
sS'legitimisation'
p1114
VL
sS'roissy'
p1115
VR
sS'countrywomen'
p1116
VK
sS'culinaire'
p1117
VK
sS'offence'
p1118
VAH
p1119
sS'liba'
p1120
VL
sS'pse'
p1121
VS
sS'basest'
p1122
VB
sS'legalised'
p1123
VL
sS'penalised'
p1124
VP
sS'directorates'
p1125
VD
sS'montesquieu'
p1126
VM
sS'institutionalisation'
p1127
VIH
p1128
sS'gratifyingly'
p1129
VG
sS'tajo'
p1130
VT
sS'fulfil'
p1131
VF
sS'putrefaction'
p1132
VP
sS'neutralised'
p1133
VN
sS'csfs'
p1134
VEH
p1135
sS'normalisation'
p1136
VN
sS'complementarity'
p1137
VK
sS'competences'
p1138
VK
sS'dissociated'
p1139
VD
sS'centralised'
p1140
VS
sS'ddr'
p1141
VD
sS'defenceless'
p1142
VD
sS'reorientated'
p1143
VR
sS'antipathetic'
p1144
VAE
p1145
sS'cercas'
p1146
VS
sS'angelilli'
p1147
VAA
p1148
sS'decentralise'
p1149
VD
sS'teleworking'
p1150
VT
sS'tdi'
p1151
VT
sS'valletta'
p1152
VV
sS'contrario'
p1153
VK
sS'carefulness'
p1154
VK
sS'pluralist'
p1155
VP
sS'forgetfulness'
p1156
VF
sS'rauf'
p1157
VR
sS'caulerpa'
p1158
VK
sS'turkistan'
p1159
VT
sS'coincineration'
p1160
VK
sS'confederations'
p1161
VK
sS'acs'
p1162
VAE
p1163
sS'delimitation'
p1164
VD
sS'acp'
p1165
VAE
p1166
sS'scandalously'
p1167
VS
sS'albacete'
p1168
VAE
p1169
sS'guigou'
p1170
VG
sS'garc'
p1171
VG
sS'derogating'
p1172
VD
sS'dipecho'
p1173
VD
sS'councillors'
p1174
VK
sS'dustbins'
p1175
VD
sS'stabilisation'
p1176
VS
sS'het'
p1177
VHH
p1178
sS'eulogises'
p1179
VY
sS'scrs'
p1180
VS
sS'decentralising'
p1181
VD
sS'endeavouring'
p1182
VEH
p1183
sS'loi'
p1184
VL
sS'namhong'
p1185
VN
sS'dislocates'
p1186
VD
sS'preachifying'
p1187
VP
sS'labelling'
p1188
VL
sS'arte'
p1189
VAA
p1190
sS'discriminations'
p1191
VD
sS'oversteps'
p1192
VOW
p1193
sS'roseira'
p1194
VR
sS'ecemis'
p1195
VAH
p1196
sS'scorning'
p1197
VS
sS'fipol'
p1198
VF
sS'censures'
p1199
VS
sS'conakry'
p1200
VK
sS'usted'
p1201
VAH
p1202
sS'oostlander'
p1203
VUW
p1204
sS'300g'
p1205
VG
sS'buesa'
p1206
VB
sS'inflexibilities'
p1207
VIH
p1208
sS'criminalisation'
p1209
VK
sS'gonz'
p1210
VG
sS'subjugating'
p1211
VS
sS'twinnings'
p1212
VT
sS'schipol'
p1213
VS
sS'igc'
p1214
VAY
p1215
sS'stabilised'
p1216
VS
sS'poos'
p1217
VP
sS'superannuated'
p1218
VS
sS'deliveryman'
p1219
VD
sS'dishonour'
p1220
VD
sS'shamefaced'
p1221
VSH
p1222
sS'a5'
p1223
VAE
p1224
sS'a4'
p1225
VAE
p1226
sS'recognise'
p1227
VR
sS'cermis'
p1228
VS
sS'redressed'
p1229
VR
sS'websites'
p1230
VW
sS'thors'
p1231
VDH
p1232
sS'opportunely'
p1233
VAA
p1234
sS'rezala'
p1235
VR
sS'coreper'
p1236
VK
sS'ivoire'
p1237
VIH
p1238
sS'sch'
p1239
VSH
p1240
sS'unrestrainable'
p1241
VAH
p1242
sS'diamantopoulou'
p1243
VD
sS'overexploiting'
p1244
VOW
p1245
sS'moratinos'
p1246
VM
sS'fiducia'
p1247
VF
sS'tain'
p1248
VT
sS'adana'
p1249
VAA
p1250
sS'1930s'
p1251
VAH
p1252
sS'driftnets'
p1253
VD
sS'sceptically'
p1254
VS
sS'homepage'
p1255
VHH
p1256
sS'endogenous'
p1257
VEH
p1258
sS'subsidiarity'
p1259
VS
sS'weshalb'
p1260
VW
sS'regularise'
p1261
VR
sS'syllabuses'
p1262
VS
sS'alleanza'
p1263
VAA
p1264
sS'mps'
p1265
VM
sS'24th'
p1266
VAH
p1267
sS'generalised'
p1268
VJH
p1269
sS'pigmeat'
p1270
VP
sS'katiforis'
p1271
VK
sS'17th'
p1272
VAH
p1273
sS'marvellous'
p1274
VM
sS'ageing'
p1275
VAH
p1276
sS'minore'
p1277
VM
sS'rengie'
p1278
VR
sS'20th'
p1279
VAH
p1280
sS'overstretched'
p1281
VOW
p1282
sS'brucellosis'
p1283
VB
sS'communitarisation'
p1284
VK
sS'husbanded'
p1285
VHH
p1286
sS'honourably'
p1287
VAA
p1288
sS'denouncement'
p1289
VD
sS'qmv'
p1290
VK
sS'timescales'
p1291
VT
sS'honourable'
p1292
VAA
p1293
sS'rato'
p1294
VR
sS'titley'
p1295
VT
sS'provan'
p1296
VP
sS'billposters'
p1297
VB
sS'teu'
p1298
VT
sS'penalise'
p1299
VP
sS'theonas'
p1300
VTH
p1301
sS'abb'
p1302
VAE
p1303
sS'abc'
p1304
VAE
p1305
sS'sua'
p1306
VS
sS'ejido'
p1307
VEY
p1308
sS'thorning'
p1309
VTH
p1310
sS'correcta'
p1311
VK
sS'abm'
p1312
VAE
p1313
sS'carpegna'
p1314
VK
sS'reziproken'
p1315
VR
sS'passiveness'
p1316
VP
sS'vall'
p1317
VV
sS'rgensen'
p1318
VR
sS'seiten'
p1319
VS
sS'favourably'
p1320
VF
sS'behaviour'
p1321
VB
sS'favourable'
p1322
VF
sS'encephalopathies'
p1323
VEH
p1324
sS'emancipatory'
p1325
VAH
p1326
sS'eurodac'
p1327
VY
sS'osce'
p1328
VAO
p1329
sS'wogau'
p1330
VW
sS'50s'
p1331
VAH
p1332
sS'renunciations'
p1333
VR
sS'hilfen'
p1334
VHH
p1335
sS'euratom'
p1336
VY
sS'rugovo'
p1337
VR
sS'utilisation'
p1338
VY
sS'rutnet'
p1339
VR
sS'2000s'
p1340
VAH
p1341
sS'vit'
p1342
VV
sS'tesauro'
p1343
VT
sS'executable'
p1344
VEH
p1345
sS'intersectoral'
p1346
VIH
p1347
sS'wijkman'
p1348
VW
sS'oecd'
p1349
VOW
p1350
sS'budgetisation'
p1351
VB
sS'doubtlessly'
p1352
VD
sS'voggenhuber'
p1353
VV
sS'underprivileged'
p1354
VAH
p1355
sS'demining'
p1356
VD
sS'auvergne'
p1357
VOW
p1358
sS'uncomprehending'
p1359
VAH
p1360
sS'industrialisation'
p1361
VIH
p1362
sS'acheneau'
p1363
VAH
p1364
sS'cofinanced'
p1365
VK
sS'aspirational'
p1366
VAE
p1367
sS'kla'
p1368
VK
sS'klm'
p1369
VK
sS'sociale'
p1370
VS
sS'revitalising'
p1371
VR
sS'stregrennan'
p1372
VS
sS'bides'
p1373
VB
sS'infectivity'
p1374
VIH
p1375
sS'dubiously'
p1376
VD
sS'publicise'
p1377
VP
sS'eaggf'
p1378
VIY
p1379
sS'csf'
p1380
VEH
p1381
sS'unsystematically'
p1382
VAH
p1383
sS'refoulement'
p1384
VR
sS'csu'
p1385
VS
sS'ssel'
p1386
VS
sS'ssen'
p1387
VS
sS'civilisation'
p1388
VS
sS'fp'
p1389
VF
sS'fr'
p1390
VF
sS'inconceivably'
p1391
VIH
p1392
sS'limpopo'
p1393
VL
sS'ff'
p1394
VF
sS'pharmaceutiques'
p1395
VF
sS'conditio'
p1396
VK
sS'misnamed'
p1397
VM
sS'neuwerk'
p1398
VN
sS'misanthropic'
p1399
VM
sS'essere'
p1400
VEH
p1401
sS'unreservedly'
p1402
VAH
p1403
sS'lepos'
p1404
VL
sS'skilful'
p1405
VS
sS'isd'
p1406
VAY
p1407
sS'sebasti'
p1408
VS
sS'itl'
p1409
VIH
p1410
sS'traceability'
p1411
VT
sS'khmelnitsky'
p1412
VK
sS'blokland'
p1413
VB
sS'uctis'
p1414
VAH
p1415
sS'ruijten'
p1416
VR
sS'roadworthy'
p1417
VR
sS'ffh'
p1418
VF
sS'telluric'
p1419
VT
sS'factortame'
p1420
VF
sS'flimsier'
p1421
VF
sS'menceau'
p1422
VM
sS'labours'
p1423
VL
sS'unpolluted'
p1424
VAH
p1425
sS'andalusians'
p1426
VAE
p1427
sS'secondment'
p1428
VS
sS'bendit'
p1429
VB
sS'straitjacketed'
p1430
VS
sS'forbear'
p1431
VF
sS'gmos'
p1432
VM
sS'reordered'
p1433
VR
sS'ceo'
p1434
VS
sS'cen'
p1435
VS
sS'cem'
p1436
VS
sS'impostures'
p1437
VIH
p1438
sS'ectaa'
p1439
VEH
p1440
sS'huhne'
p1441
VHH
p1442
sS'ortuondo'
p1443
VAO
p1444
sS'aglietta'
p1445
VAA
p1446
sS'2a'
p1447
VIY
p1448
sS'authorisation'
p1449
VAO
p1450
sS'fense'
p1451
VF
sS'vatanen'
p1452
VV
sS'laxer'
p1453
VL
sS'exclusiveness'
p1454
VIH
p1455
sS'organises'
p1456
VAO
p1457
sS'366a'
p1458
VD
sS'organised'
p1459
VAO
p1460
sS'synchronised'
p1461
VS
sS'todo'
p1462
VT
sS'quelque'
p1463
VK
sS'meijer'
p1464
VM
sS'realising'
p1465
VR
sS'jesuitical'
p1466
VJH
p1467
sS'doddle'
p1468
VD
sS'reorganised'
p1469
VR
sS'reappearing'
p1470
VR
sS'wadden'
p1471
VW
sS'brovina'
p1472
VB
sS'beurre'
p1473
VB
sS'stigmatises'
p1474
VS
sS'tesiegel'
p1475
VT
sS'housebound'
p1476
VHH
p1477
sS'organising'
p1478
VAO
p1479
sS'ispa'
p1480
VAY
p1481
sS'baringdorf'
p1482
VB
sS'oligarchies'
p1483
VAA
p1484
sS'oisin'
p1485
VOY
p1486
sS'marfil'
p1487
VM
sS'ruination'
p1488
VR
sS'krarup'
p1489
VK
sS'shoah'
p1490
VSH
p1491
sS'responsibilisation'
p1492
VR
sS'ouvri'
p1493
VUW
p1494
sS'rhinotracheitis'
p1495
VR
sS'xenophobe'
p1496
VZ
sS'harbours'
p1497
VHH
p1498
sS'symbolised'
p1499
VS
sS'avec'
p1500
VAA
p1501
sS'lagendijk'
p1502
VL
sS'symbolises'
p1503
VS
sS'forevermore'
p1504
VF
sS'fruitfully'
p1505
VF
sS'overcautious'
p1506
VOW
p1507
sS'subsidise'
p1508
VS
sS'contre'
p1509
VK
sS'uncultured'
p1510
VAH
p1511
sS'mudflat'
p1512
VM
sS'geremek'
p1513
VJH
p1514
sS'schr'
p1515
VS
sS'zimeray'
p1516
VZ
sS'refilling'
p1517
VR
sS'cosv'
p1518
VK
sS'submissively'
p1519
VS
sS'aan'
p1520
VAA
p1521
sS'dans'
p1522
VD
sS'hoti'
p1523
VHH
p1524
sS'reorganisations'
p1525
VR
sS'wastage'
p1526
VW
sS'galit'
p1527
VG
sS'passant'
p1528
VP
sS'prefigure'
p1529
VP
sS'homeworking'
p1530
VHH
p1531
sS'awoken'
p1532
VAH
p1533
sS'reorganisation'
p1534
VR
sS'larcher'
p1535
VL
sS'kartellamt'
p1536
VK
sS'transboundary'
p1537
VT
sS'bovines'
p1538
VB
sS'parece'
p1539
VP
sS'k2'
p1540
VK
sS'clich'
p1541
VK
sS'instatement'
p1542
VIH
p1543
sS'efa'
p1544
VEH
p1545
sS'herri'
p1546
VHH
p1547
sS'efe'
p1548
VIY
p1549
sS'hotchpotch'
p1550
VHH
p1551
sS'corus'
p1552
VK
sS'diversed'
p1553
VD
sS'kratsa'
p1554
VK
sS'physico'
p1555
VF
sS'intergovernmentalisation'
p1556
VIH
p1557
sS'kg'
p1558
VG
sS'focussing'
p1559
VF
sS'penalisation'
p1560
VP
sS'km'
p1561
VK
sS'ltcm'
p1562
VL
sS'elucidating'
p1563
VAH
p1564
sS'retardants'
p1565
VR
sS'morillon'
p1566
VM
sS'expedients'
p1567
VIH
p1568
sS'vilamoura'
p1569
VV
sS'stepwise'
p1570
VS
sS'ecsc'
p1571
VEH
p1572
sS'betokens'
p1573
VB
sS'vigour'
p1574
VV
sS'criticising'
p1575
VK
sS'trialogue'
p1576
VT
sS'hiv'
p1577
VHH
p1578
sS'ingushetia'
p1579
VIH
p1580
sS'evregenis'
p1581
VEH
p1582
sS'harwich'
p1583
VHH
p1584
sS'reorganise'
p1585
VR
sS'ceecs'
p1586
VS
sS'unua'
p1587
VAH
p1588
sS'afsj'
p1589
VAE
p1590
sS'rensen'
p1591
VR
sS'sustainably'
p1592
VS
sS'irresolvable'
p1593
VIH
p1594
sS'carlotti'
p1595
VK
sS'fyrom'
p1596
VF
sS'corruptibility'
p1597
VK
sS'laan'
p1598
VL
sS'hexavalent'
p1599
VHH
p1600
sS'cherrypick'
p1601
VCH
p1602
sS'quecedo'
p1603
VK
sS'eurosceptics'
p1604
VY
sS'pvc'
p1605
VK
sS'conjuncture'
p1606
VK
sS'sem'
p1607
VS
sS'giorgos'
p1608
VJH
p1609
sS'sek'
p1610
VS
sS'insidiously'
p1611
VIH
p1612
sS'unacknowledged'
p1613
VAH
p1614
sS'timeworn'
p1615
VT
sS'backhandedness'
p1616
VB
sS'fundability'
p1617
VF
sS'rachidi'
p1618
VR
sS'verts'
p1619
VV
sS'morgantini'
p1620
VM
sS'baltas'
p1621
VB
sS'democratisation'
p1622
VD
sS'tajani'
p1623
VT
sS'hecke'
p1624
VHH
p1625
sS'rightholders'
p1626
VR
sS'pedagogic'
p1627
VP
sS'randzio'
p1628
VR
sS'tropospheric'
p1629
VT
sS'adr'
p1630
VAE
p1631
sS'windedness'
p1632
VW
sS'inquisitorial'
p1633
VIH
p1634
sS'weitergef'
p1635
VV
sS'busquin'
p1636
VB
sS'lacaci'
p1637
VL
sS'nikitin'
p1638
VN
sS'behoves'
p1639
VB
sS'retable'
p1640
VR
sS'tauern'
p1641
VT
sS'mg'
p1642
VEH
p1643
sS'viout'
p1644
VV
sS'subsidised'
p1645
VS
sS'olle'
p1646
VAA
p1647
sS'furanes'
p1648
VF
sS'fibres'
p1649
VF
sS'revolutionising'
p1650
VR
sS'pr'
p1651
VP
sS'pt'
p1652
VEY
p1653
sS'unavowed'
p1654
VAH
p1655
sS'brushstrokes'
p1656
VB
sS'frassoni'
p1657
VF
sS'cornillet'
p1658
VK
sS'favelas'
p1659
VF
sS'1950s'
p1660
VAH
p1661
sS'ultraliberal'
p1662
VAH
p1663
sS'elst'
p1664
VEH
p1665
sS'schori'
p1666
VS
sS'oberbayern'
p1667
VAA
p1668
sS'raouf'
p1669
VR
sS'mla'
p1670
VM
sS'laxness'
p1671
VL
sS'volksunie'
p1672
VV
sS'milie'
p1673
VM
sS'rigour'
p1674
VR
sS'governability'
p1675
VG
sS'mpla'
p1676
VM
sS'elucidation'
p1677
VAH
p1678
sS'marginalise'
p1679
VM
sS'rationalising'
p1680
VR
sS'dg1'
p1681
VD
sS'lacklustre'
p1682
VL
sS'welshman'
p1683
VW
sS'lvaro'
p1684
VL
sS'quadras'
p1685
VK
sS'centralisation'
p1686
VS
sS'constitutionalisation'
p1687
VK
sS'sightedness'
p1688
VS
sS'rambouillet'
p1689
VR
sS'scientifiques'
p1690
VS
sS'unestablished'
p1691
VAH
p1692
sS'liberalised'
p1693
VL
sS'fallowing'
p1694
VF
sS'marset'
p1695
VM
sS'padania'
p1696
VP
sS'fulfilment'
p1697
VF
sS'dgs'
p1698
VJH
p1699
sS'haarder'
p1700
VHH
p1701
sS'gsp'
p1702
VZ
sS'prioritised'
p1703
VP
sS'globalised'
p1704
VG
sS'forestation'
p1705
VF
sS'prioritises'
p1706
VP
sS'mobilising'
p1707
VM
sS'scaremongering'
p1708
VS
sS'gsm'
p1709
VJH
p1710
sS'fraisse'
p1711
VF
sS'feira'
p1712
VF
sS'typologies'
p1713
VT
sS'rechar'
p1714
VR
sS'alpes'
p1715
VAH
p1716
sS'ngigkeit'
p1717
VG
sS'nestl'
p1718
VN
sS'sheepmeat'
p1719
VSH
p1720
sS'madariaga'
p1721
VM
sS'calibre'
p1722
VK
sS'3and'
p1723
VAA
p1724
sS'47th'
p1725
VAH
p1726
sS'coastguards'
p1727
VK
sS'erikas'
p1728
VEH
p1729
sS'hauliers'
p1730
VHH
p1731
sS'ammokhostos'
p1732
VAE
p1733
sS'aggregation'
p1734
VAE
p1735
sS'rling'
p1736
VR
sS'monika'
p1737
VM
sS'cadou'
p1738
VK
sS'timetabling'
p1739
VT
sS'microcredit'
p1740
VM
sS'aridity'
p1741
VER
p1742
sS'harmonising'
p1743
VHH
p1744
sS'abattoirs'
p1745
VAH
p1746
sS'pirker'
p1747
VP
sS'eea'
p1748
VIY
p1749
sS'summarise'
p1750
VS
sS'channelled'
p1751
VCH
p1752
sS'uncompromised'
p1753
VAH
p1754
sS'wombs'
p1755
VW
sS'urba'
p1756
VER
p1757
sS'30s'
p1758
VAH
p1759
sS'metres'
p1760
VM
sS'representativeness'
p1761
VR
sS'b5'
p1762
VB
sS'b7'
p1763
VB
sS'b1'
p1764
VB
sS'b2'
p1765
VB
sS'publica'
p1766
VP
sS'30a'
p1767
VD
sS'suanzes'
p1768
VS
sS'sud'
p1769
VS
sS'begrudges'
p1770
VB
sS'tampere'
p1771
VT
sS'attac'
p1772
VEY
p1773
sS'morbihan'
p1774
VM
sS'proc'
p1775
VP
sS'faslane'
p1776
VF
sS'icrc'
p1777
VAY
p1778
sS'neutre'
p1779
VN
sS'interpretative'
p1780
VIH
p1781
sS'employability'
p1782
VEH
p1783
sS'br'
p1784
VB
sS'tisza'
p1785
VT
sS'analysing'
p1786
VAE
p1787
sS'megalomaniacs'
p1788
VM
sS'esterno'
p1789
VEH
p1790
sS'sukarnoputri'
p1791
VS
sS'cossutta'
p1792
VK
sS'wherefores'
p1793
VHH
p1794
sS'trittin'
p1795
VT
sS'whiteboard'
p1796
VHH
p1797
sS'ndez'
p1798
VN
sS'helpfulness'
p1799
VHH
p1800
sS'atxalandabaso'
p1801
VAE
p1802
sS'nder'
p1803
VN
sS'yobs'
p1804
VY
sS'akkuyu'
p1805
VAE
p1806
sS'circuitously'
p1807
VS
sS'elorza'
p1808
VEH
p1809
sS'legalise'
p1810
VL
sS'hudghton'
p1811
VHH
p1812
sS'papoutsis'
p1813
VP
sS'derogations'
p1814
VD
sS'plantin'
p1815
VP
sS'realisation'
p1816
VR
sS'visae'
p1817
VV
sS'parez'
p1818
VP
sS'maaten'
p1819
VM
sS'waffen'
p1820
VW
sS'lldc'
p1821
VS
sS'falun'
p1822
VF
sS'abovementioned'
p1823
VAH
p1824
sS'quetzalcoatl'
p1825
VK
sS'bazin'
p1826
VB
sS'holidaymakers'
p1827
VHH
p1828
sS'bluefin'
p1829
VB
sS'swiebel'
p1830
VS
sS'devolving'
p1831
VD
sS'elnosa'
p1832
VEH
p1833
sS'monnet'
p1834
VM
sS'jonckheer'
p1835
VHH
p1836
sS'ludford'
p1837
VL
sS'governo'
p1838
VG
sS'maximised'
p1839
VM
sS'svend'
p1840
VS
sS'hrkop'
p1841
VHH
p1842
sS'sixthly'
p1843
VS
sS'posidonia'
p1844
VP
sS'agronomic'
p1845
VAH
p1846
sS'practise'
p1847
VP
sS'cis'
p1848
VS
sS'erkki'
p1849
VER
p1850
sS'minamata'
p1851
VM
sS'cip'
p1852
VS
sS'nsch'
p1853
VN
sS'maximises'
p1854
VM
sS'uk'
p1855
VAH
p1856
sS'sapard'
p1857
VS
sS'prejudgements'
p1858
VP
sS'polarised'
p1859
VP
sS'euroworks'
p1860
VY
sS'scrapie'
p1861
VS
sS'kn'
p1862
VK
sS'weggen'
p1863
VW
sS'formalise'
p1864
VF
sS'nationalise'
p1865
VN
sS'bureaucratise'
p1866
VB
sS'exup'
p1867
VEH
p1868
sS'elles'
p1869
VEH
p1870
sS'samuli'
p1871
VS
sS'individualisation'
p1872
VIH
p1873
sS'multipliers'
p1874
VM
sS'eldr'
p1875
VEH
p1876
sS'priori'
p1877
VP
sS'computerised'
p1878
VK
sS'gra'
p1879
VG
sS'organise'
p1880
VAO
p1881
sS'pintassilgo'
p1882
VP
sS'berthing'
p1883
VB
sS'korhola'
p1884
VK
sS'practicalities'
p1885
VP
sS'galvanised'
p1886
VG
sS'suchil'
p1887
VS
sS'overladen'
p1888
VOW
p1889
sS'digressive'
p1890
VD
sS'overlong'
p1891
VOW
p1892
sS'holey'
p1893
VHH
p1894
sS'flautre'
p1895
VF
sS'casaca'
p1896
VK
sS'utilised'
p1897
VY
sS'neighbouring'
p1898
VN
sS'compounders'
p1899
VK
sS'unef'
p1900
VUW
p1901
sS'communautaire'
p1902
VK
sS'sclope'
p1903
VS
sS'edf'
p1904
VEH
p1905
sS'gr'
p1906
VG
sS'edd'
p1907
VEH
p1908
sS'denktash'
p1909
VD
sS'rivne'
p1910
VR
sS'cofinance'
p1911
VK
sS'ge'
p1912
VJH
p1913
sS'legitimising'
p1914
VL
sS'eurofederalist'
p1915
VY
sS'mollifying'
p1916
VM
sS'resourced'
p1917
VR
sS'blindingly'
p1918
VB
sS'plcs'
p1919
VP
sS'demilitarising'
p1920
VD
sS'onesta'
p1921
VAH
p1922
sS'g7'
p1923
VAH
p1924
sS'enslaves'
p1925
VEH
p1926
sS'spinelessness'
p1927
VS
sS'neighbourly'
p1928
VN
sS'revitalise'
p1929
VR
sS'vitorino'
p1930
VV
sS'g8'
p1931
VAH
p1932
sS'mitrovica'
p1933
VM
sS'materialise'
p1934
VM
sS'ruinously'
p1935
VR
sS'farrago'
p1936
VF
sS'insuperable'
p1937
VIH
p1938
sS'brovinas'
p1939
VB
sS'speroni'
p1940
VS
sS'leavers'
p1941
VL
sS'kinsmen'
p1942
VK
sS'depositories'
p1943
VD
sS'alia'
p1944
VAA
p1945
sS'bleiben'
p1946
VB
sS'materialised'
p1947
VM
sS'uen'
p1948
VY
sS'cfi'
p1949
VIY
p1950
sS'mortalities'
p1951
VM
sS'raninsy'
p1952
VR
sS'cofinancing'
p1953
VK
sS'croo'
p1954
VK
sS'barnier'
p1955
VB
sS'zu'
p1956
VZ
sS'kouchner'
p1957
VK
sS'cfp'
p1958
VEH
p1959
sS'infrastrucutres'
p1960
VIH
p1961
sS'ukip'
p1962
VY
sS'calorific'
p1963
VK
sS'coccidiostats'
p1964
VK
sS'kreissl'
p1965
VK
sS'stedt'
p1966
VS
sS'3b'
p1967
VB
sS'pristina'
p1968
VP
sS'implementable'
p1969
VIH
p1970
sS'flavourings'
p1971
VF
sS'scepticism'
p1972
VS
sS'transhipment'
p1973
VT
sS'50th'
p1974
VAH
p1975
sS'herritarrok'
p1976
VHH
p1977
sS'misdemeanours'
p1978
VM
sS'phonograms'
p1979
VF
sS'ambit'
p1980
VAE
p1981
sS'wiebenga'
p1982
VW
sS'lipietz'
p1983
VL
sS'haulier'
p1984
VHH
p1985
sS'lez'
p1986
VL
sS'commendably'
p1987
VK
sS'proscribing'
p1988
VP
sS'metre'
p1989
VM
sS'harmonisation'
p1990
VHH
p1991
sS'remits'
p1992
VR
sS'flavour'
p1993
VF
sS'victimised'
p1994
VV
sS'taxman'
p1995
VT
sS'backhanders'
p1996
VB
sS'138a'
p1997
VD
sS'stenmarck'
p1998
VS
sS'michiel'
p1999
VM
sS'kurti'
p2000
VK
sS'apm'
p2001
VAE
p2002
sS'inhumanities'
p2003
VIH
p2004
sS'consignments'
p2005
VK
sS'usd'
p2006
VAH
p2007
sS'feo'
p2008
VF
sS'mobilisation'
p2009
VM
sS'extractive'
p2010
VIH
p2011
sS'congratulates'
p2012
VK
sS'sceptics'
p2013
VS
sS'piqu'
p2014
VP
sS'eutrophication'
p2015
VY
sS'assessable'
p2016
VAH
p2017
sS'nassauer'
p2018
VN
sS'contravening'
p2019
VK
sS'iii'
p2020
VIY
p2021
sS'immuration'
p2022
VIH
p2023
sS'lannoye'
p2024
VL
sS'unrivalled'
p2025
VAH
p2026
sS'entreprises'
p2027
VAA
p2028
sS'fulfils'
p2029
VF
sS'transmissible'
p2030
VT
sS'flechard'
p2031
VF
sS'moluccans'
p2032
VM
sS'votre'
p2033
VV
sS'exonerations'
p2034
VIH
p2035
sS'sinti'
p2036
VS
sS'vireaid'
p2037
VV
sS'bonemeal'
p2038
VB
sS'prioritise'
p2039
VP
sS'pretexts'
p2040
VP
sS'marginalising'
p2041
VM
sS'optimised'
p2042
VAA
p2043
sS'summery'
p2044
VS
sS'parlous'
p2045
VP
sS'dimitrakopoulos'
p2046
VD
sS'timetabled'
p2047
VT
sS'timeframes'
p2048
VT
sS'verheugen'
p2049
VV
sS'tacs'
p2050
VT
sS'reinstallation'
p2051
VR
sS'dockyards'
p2052
VD
sS'javette'
p2053
VZH
p2054
sS'marpol'
p2055
VM
sS'glasshouses'
p2056
VG
sS'npt'
p2057
VEH
p2058
sS'ultraliberalism'
p2059
VAH
p2060
sS'kindermann'
p2061
VK
sS'sidelong'
p2062
VS
sS'adjectival'
p2063
VAH
p2064
sS'hydrogeological'
p2065
VHH
p2066
sS'favourites'
p2067
VF
sS'bipartite'
p2068
VB
sS'politicised'
p2069
VP
sS'europeanised'
p2070
VY
sS'saramago'
p2071
VS
sS'savoyard'
p2072
VS
sS'compostela'
p2073
VK
sS'offences'
p2074
VAH
p2075
sS'thyself'
p2076
VTH
p2077
sS'hrad'
p2078
VHH
p2079
sS'finalising'
p2080
VF
sS'll'
p2081
VL
sS'equalise'
p2082
VIY
p2083
sS'sinecure'
p2084
VS
sS'puerta'
p2085
VP
sS'eieck'
p2086
VAY
p2087
sS'communitised'
p2088
VK
sS'eur'
p2089
VER
p2090
sS'unacceptability'
p2091
VAH
p2092
sS'emphasised'
p2093
VEH
p2094
sS'spelt'
p2095
VS
sS'alimentarius'
p2096
VAE
p2097
sS'emphasises'
p2098
VEH
p2099
sS'stabilise'
p2100
VS
sS'codetermination'
p2101
VK
sS'boetticher'
p2102
VB
sS'destabilisation'
p2103
VD
sS'kilometres'
p2104
VK
sS'expels'
p2105
VIH
p2106
sS'avocat'
p2107
VAE
p2108
sS'renationalise'
p2109
VR
sS'globalphobes'
p2110
VG
sS'sandb'
p2111
VS
sS'despots'
p2112
VD
sS'baulk'
p2113
VB
sS'outworking'
p2114
VAW
p2115
sS'tente'
p2116
VT
sS'casuistry'
p2117
VK
sS'sion'
p2118
VS
sS'gargani'
p2119
VG
sS'programmes'
p2120
VP
sS'ecofin'
p2121
VIH
p2122
sS'saviours'
p2123
VS
sS'scrapies'
p2124
VS
sS'multiannual'
p2125
VM
sS'liberalising'
p2126
VL
sS'favours'
p2127
VF
sS'siena'
p2128
VS
sS'cyanogen'
p2129
VS
sS'standardisation'
p2130
VS
sS'ece'
p2131
VEH
p2132
sS'ecb'
p2133
VEH
p2134
sS'piecyk'
p2135
VP
sS'undp'
p2136
VAH
p2137
sS'ecu'
p2138
VEH
p2139
sS'symbolise'
p2140
VS
sS'alchemists'
p2141
VAE
p2142
sS'zimmerling'
p2143
VZ
sS'equalisation'
p2144
VIY
p2145
sS'klagenfurt'
p2146
VK
sS'interinstitutional'
p2147
VIH
p2148
sS'externalisation'
p2149
VIH
p2150
sS'prioritisation'
p2151
VP
sS'modernising'
p2152
VM
sS'thessaloniki'
p2153
VTH
p2154
sS'clamour'
p2155
VK
sS'fertiliser'
p2156
VF
sS'maccormick'
p2157
VM
sS'savour'
p2158
VS
sS'emas'
p2159
VEH
p2160
sS'echr'
p2161
VEH
p2162
sS'demoralised'
p2163
VD
sS'ponderously'
p2164
VP
sS'unabating'
p2165
VAH
p2166
sS'lom'
p2167
VL
sS'jarzembowski'
p2168
VJH
p2169
sS'macrofinancial'
p2170
VM
sS'spillages'
p2171
VS
sS'joaqu'
p2172
VJH
p2173
sS'blinkered'
p2174
VB
sS'peijs'
p2175
VP
sS'pronk'
p2176
VP
sS'papayannakis'
p2177
VP
sS'anaemia'
p2178
VAE
p2179
sS'aquavit'
p2180
VAH
p2181
sS'moluccas'
p2182
VM
sS'masochists'
p2183
VM
sS'inuits'
p2184
VIH
p2185
sS'postgraduate'
p2186
VP
sS'apologise'
p2187
VAH
p2188
sS'folias'
p2189
VF
sS'udb'
p2190
VAH
p2191
sS'pradier'
p2192
VP
sS'romagna'
p2193
VR
sS'wppt'
p2194
VW
sS'150g'
p2195
VG
sS'labourers'
p2196
VL
sS'popularised'
p2197
VP
sS'ber'
p2198
VB
sS'duisenberg'
p2199
VD
sS'berthu'
p2200
VB
sS'labouring'
p2201
VL
sS'arousa'
p2202
VER
p2203
sS'orthomixomicrovirus'
p2204
VAO
p2205
sS'faim'
p2206
VF
sS'capitulating'
p2207
VK
sS'propuesta'
p2208
VP
sS'multipartite'
p2209
VM
sS'vlaamsblok'
p2210
VV
sS'recantations'
p2211
VR
sS'pretentiously'
p2212
VP
sS'iopcf'
p2213
VAY
p2214
sS'karamanou'
p2215
VK
sS'coresponsibility'
p2216
VK
sS'familiarise'
p2217
VF
sS'multifunctionality'
p2218
VM
sS'relativises'
p2219
VR
sS'bronislaw'
p2220
VB
sS'flagellation'
p2221
VF
sS'energise'
p2222
VEH
p2223
sS'formers'
p2224
VF
sS'instil'
p2225
VIH
p2226
sS'lutte'
p2227
VL
sS'haiders'
p2228
VHH
p2229
sS'salafranca'
p2230
VS
sS'seguro'
p2231
VS
sS'reconcilable'
p2232
VR
sS'noire'
p2233
VN
sS'wilful'
p2234
VW
sS'sceptical'
p2235
VS
sS'regionality'
p2236
VR
sS'authorisations'
p2237
VAO
p2238
sS'succour'
p2239
VS
sS'ngl'
p2240
VEH
p2241
sS'xviiith'
p2242
VK
sS'noiz'
p2243
VN
sS'vlaams'
p2244
VV
sS'loutish'
p2245
VL
sS'minimising'
p2246
VM
sS'finalised'
p2247
VF
sS'postulated'
p2248
VP
sS'democratising'
p2249
VD
sS'renationalisation'
p2250
VR
sS'tributyl'
p2251
VT
sS'manifestos'
p2252
VM
sS'tbt'
p2253
VT
sS'decentralisation'
p2254
VD
sS'regionalists'
p2255
VR
sS'ultraperipheral'
p2256
VAH
p2257
sS'unprejudiced'
p2258
VAH
p2259
sS'conglomerations'
p2260
VK
sS'exportation'
p2261
VEH
p2262
sS'transposition'
p2263
VT
sS'somport'
p2264
VS
sS'wilhelmshaven'
p2265
VW
sS'categorised'
p2266
VK
sS'gbp'
p2267
VB
sS'graa'
p2268
VG
sS'ohim'
p2269
VOW
p2270
sS'suominen'
p2271
VS
sS'irrefutably'
p2272
VIH
p2273
sS'monocultures'
p2274
VM
sS'langenhagen'
p2275
VL
sS'btf'
p2276
VB
sS'mercifulness'
p2277
VM
sS'despoiled'
p2278
VD
sS'shepherdstown'
p2279
VSH
p2280
sS'bedevilled'
p2281
VB
sS'diese'
p2282
VD
sS'thoughtlessness'
p2283
VTH
p2284
sS'bedfordshire'
p2285
VB
sS'responsibilise'
p2286
VR
sS'globalisation'
p2287
VG
sS'americanically'
p2288
VAH
p2289
sS'unseaworthy'
p2290
VAH
p2291
sS'combated'
p2292
VK
sS'ld'
p2293
VAH
p2294
sS'cymru'
p2295
VS
sS'eta'
p2296
VIY
p2297
sS'utilising'
p2298
VY
sS'avil'
p2299
VAE
p2300
sS'cl'
p2301
VK
sS'authorised'
p2302
VAO
p2303
sS'maliakos'
p2304
VM
sS'cf'
p2305
VIY
p2306
sS'ce'
p2307
VS
sS'hm3'
p2308
VAH
p2309
sS'vend'
p2310
VV
sS'juger'
p2311
VJH
p2312
sS'cr'
p2313
VK
sS'uck'
p2314
VAH
p2315
sS'regenerative'
p2316
VR
sS'authorises'
p2317
VAO
p2318
sS'codecisions'
p2319
VK
sS'bizarrely'
p2320
VB
sS'ecips'
p2321
VEH
p2322
sS'minimise'
p2323
VM
sS'externalising'
p2324
VIH
p2325
sS'otc'
p2326
VAO
p2327
sS'exploiters'
p2328
VIH
p2329
sS'neighbour'
p2330
VN
sS'patriotisms'
p2331
VP
sS'mouskouri'
p2332
VM
sS'subparagraph'
p2333
VS
sS'frameworks'
p2334
VF
sS'synergistically'
p2335
VS
sS'intranet'
p2336
VIH
p2337
sS'backbenchers'
p2338
VB
sS'caudron'
p2339
VK
sS'galeote'
p2340
VG
sS'retabled'
p2341
VR
sS'hobbyhorse'
p2342
VHH
p2343
sS'monopolised'
p2344
VM
sS'kosovan'
p2345
VK
sS'biannually'
p2346
VB
sS'anthroprogenic'
p2347
VAE
p2348
sS'termism'
p2349
VT
sS'chapeau'
p2350
VSH
p2351
sS'vp'
p2352
VV
sS'pedalling'
p2353
VP
sS'kosovar'
p2354
VK
sS'philoxenia'
p2355
VF
sS'situ'
p2356
VS
sS'avc'
p2357
VAE
p2358
sS'rendaire'
p2359
VR
sS'justiciable'
p2360
VJH
p2361
sS'voivodina'
p2362
VV
sS'codecision'
p2363
VK
sS'expediencies'
p2364
VIH
p2365
sS'fifthly'
p2366
VF
sS'brahim'
p2367
VB
sS'indivisibility'
p2368
VIH
p2369
sS'politicise'
p2370
VP
sS'garaud'
p2371
VG
sS'vilagarcia'
p2372
VV
sS'standardising'
p2373
VS
sS'metamorphosing'
p2374
VM
sS'realises'
p2375
VR
sS'giorgios'
p2376
VJH
p2377
sS'colour'
p2378
VK
sS'underspent'
p2379
VAH
p2380
sS'herinneringen'
p2381
VHH
p2382
sS'kuckelkorn'
p2383
VK
sS'realised'
p2384
VR
sS'abdications'
p2385
VAE
p2386
sS'juncker'
p2387
VJH
p2388
sS'poettering'
p2389
VP
sS'disrupters'
p2390
VD
sS'flexibilisation'
p2391
VF
sS'crunchie'
p2392
VK
sS'antisemitism'
p2393
VAE
p2394
sS'hypocritically'
p2395
VHH
p2396
sS'gmo'
p2397
VM
sS'wallstr'
p2398
VW
sS'bedingungen'
p2399
VB
sS'nter'
p2400
VN
sS'cushnahan'
p2401
VK
sS'optimising'
p2402
VAA
p2403
sS'weu'
p2404
VW
sS'uncompromisingly'
p2405
VAH
p2406
sS'assistito'
p2407
VAH
p2408
sS'thoughtlessly'
p2409
VTH
p2410
sS'normalise'
p2411
VN
sS'poggiolini'
p2412
VP
sS'meaningfulness'
p2413
VM
sS'gorostiaga'
p2414
VG
sS'marketeering'
p2415
VM
sS'supping'
p2416
VS
sS'dures'
p2417
VD
sS'realit'
p2418
VR
sS'minimised'
p2419
VM
sS'candu'
p2420
VK
sS'maghreb'
p2421
VM
sS'dutroux'
p2422
VD
sS'agusta'
p2423
VAA
p2424
sS'muscardini'
p2425
VM
sS'troposphere'
p2426
VT
sS'56th'
p2427
VAH
p2428
sS'itchen'
p2429
VIH
p2430
sS'thaci'
p2431
VTH
p2432
sS'abusively'
p2433
VAH
p2434
sS'desama'
p2435
VD
sS'transposing'
p2436
VT
sS'crewing'
p2437
VK
sS'rapkay'
p2438
VR
sS'14th'
p2439
VAH
p2440
sS'esf'
p2441
VEH
p2442
sS'esc'
p2443
VEH
p2444
sS'fudges'
p2445
VF
sS'esa'
p2446
VIY
p2447
sS'alkartasuna'
p2448
VAE
p2449
sS'analysed'
p2450
VAE
p2451
sS'sarre'
p2452
VS
sS'piggledy'
p2453
VP
sS'viviane'
p2454
VV
sS'kosovars'
p2455
VK
sS'zootechnical'
p2456
VZ
sS'chocoholics'
p2457
VCH
p2458
sS'transitive'
p2459
VT
sS'mammon'
p2460
VM
sS'mcduck'
p2461
VM
sS'localised'
p2462
VL
sS'unfavourable'
p2463
VAH
p2464
sS'aquacultural'
p2465
VAE
p2466
sS'disgracefully'
p2467
VD
sS'unfavourably'
p2468
VAH
p2469
sS'endeavours'
p2470
VEH
p2471
sS'desertification'
p2472
VD
sS'interethnic'
p2473
VIH
p2474
sS'liikanen'
p2475
VL
sS'rothley'
p2476
VR
sS'unwished'
p2477
VAH
p2478
sS'posselt'
p2479
VP
sS'dispensaries'
p2480
VD
sS'gretab'
p2481
VG
sS'institutionalising'
p2482
VIH
p2483
sS'finalisation'
p2484
VF
sS'demonising'
p2485
VD
sS'hm'
p2486
VAH
p2487
sS'bridgeheads'
p2488
VB
sS'wuori'
p2489
VW
sS'detestable'
p2490
VD
sS'macedonians'
p2491
VM
sS'mistranslation'
p2492
VM
sS'destabilise'
p2493
VD
sS'democratise'
p2494
VD
sS'ini'
p2495
VIY
p2496
sS'intradermal'
p2497
VIH
p2498
sS'youthstart'
p2499
VY
sS'bartho'
p2500
VB
sS'postmen'
p2501
VP
sS'decourri'
p2502
VD
sS'disinheriting'
p2503
VD
sS'oau'
p2504
VOW
p2505
sS'impositions'
p2506
VIH
p2507
sS'latterly'
p2508
VL
sS'standardise'
p2509
VS
sS'blameworthy'
p2510
VB
sS'1kg'
p2511
VG
sS'belder'
p2512
VB
sS'equalising'
p2513
VIY
p2514
sS'cheque'
p2515
VCH
p2516
sS'disjunction'
p2517
VD
sS'galvanise'
p2518
VG
sS'entreat'
p2519
VEH
p2520
sS'trakatellis'
p2521
VT
sS'queir'
p2522
VK
s.