(dp1
S'schengen'
p2
VSH
p3
sS'brindisi'
p4
VB
sS'boilersuit'
p5
VB
sS'unice'
p6
VY
sS'geresta'
p7
VJH
p8
sS'collating'
p9
VK
sS'iuris'
p10
VY
sS'souladakis'
p11
VS
sS'batasuna'
p12
VB
sS'peripheries'
p13
VP
sS'veux'
p14
VV
sS'jeopardising'
p15
VJH
p16
sS'crisex'
p17
VK
sS'velzen'
p18
VV
sS'andalucia'
p19
VAE
p20
sS'characterises'
p21
VK
sS'parit'
p22
VP
sS'neighbours'
p23
VN
sS'brempt'
p24
VB
sS'characterised'
p25
VK
sS'categorisation'
p26
VK
sS'derogate'
p27
VD
sS'environnement'
p28
VEH
p29
sS'rashly'
p30
VR
sS'adige'
p31
VAE
p32
sS'levelling'
p33
VL
sS'saarc'
p34
VS
sS'jaca'
p35
VJH
p36
sS'achievability'
p37
VEY
p38
sS'murcia'
p39
VM
sS'subsidising'
p40
VS
sS'globalising'
p41
VG
sS'subprogrammes'
p42
VS
sS'markov'
p43
VM
sS'unauthorised'
p44
VAH
p45
sS'fogh'
p46
VF
sS'chev'
p47
VCH
p48
sS'interparliamentary'
p49
VIH
p50
sS'prising'
p51
VP
sS'capitalisation'
p52
VK
sS'ilisu'
p53
VIH
p54
sS'rouen'
p55
VR
sS'cantabrian'
p56
VK
sS'hundredfold'
p57
VHH
p58
sS'draftsperson'
p59
VD
sS'abogado'
p60
VAA
p61
sS'nen'
p62
VN
sS'faecal'
p63
VF
sS'milie'
p64
VM
sS'bandying'
p65
VB
sS'nea'
p66
VN
sS'alavanos'
p67
VAE
p68
sS'sittings'
p69
VS
sS'ner'
p70
VN
sS'phthalates'
p71
VF
sS'watercourse'
p72
VW
sS'unmotivated'
p73
VAH
p74
sS'hemicycle'
p75
VHH
p76
sS'schierhuber'
p77
VSH
p78
sS'repugnance'
p79
VR
sS'ventilators'
p80
VV
sS'specialise'
p81
VS
sS'mep'
p82
VM
sS'mediagoguery'
p83
VM
sS'feedstuffs'
p84
VF
sS'antisemitic'
p85
VAE
p86
sS'chlorides'
p87
VK
sS'karit'
p88
VK
sS'yarmouth'
p89
VY
sS'scharping'
p90
VSH
p91
sS'oloron'
p92
VAA
p93
sS'ermua'
p94
VER
p95
sS'populaire'
p96
VP
sS'nulla'
p97
VN
sS'summarising'
p98
VS
sS'criticise'
p99
VK
sS'remedium'
p100
VR
sS'lldcs'
p101
VL
sS'sympathise'
p102
VS
sS'specialising'
p103
VS
sS'pontevedra'
p104
VP
sS'exceedance'
p105
VIH
p106
sS'cloven'
p107
VK
sS'rationalise'
p108
VR
sS'dalmau'
p109
VD
sS'eurojust'
p110
VY
sS'imperilling'
p111
VIH
p112
sS'tranquillity'
p113
VT
sS'pomes'
p114
VP
sS'antidemocratic'
p115
VAE
p116
sS'nement'
p117
VN
sS'supranationally'
p118
VS
sS'oarsmen'
p119
VAO
p120
sS'enfopol'
p121
VEH
p122
sS'muss'
p123
VM
sS'resurfaces'
p124
VR
sS'stigmatise'
p125
VS
sS'equilateral'
p126
VEH
p127
sS'jeopardises'
p128
VJH
p129
sS'camre'
p130
VK
sS'civilisations'
p131
VS
sS'jeopardised'
p132
VJH
p133
sS'mp'
p134
VEH
p135
sS'radicalisation'
p136
VR
sS'quaestor'
p137
VK
sS'hayfork'
p138
VHH
p139
sS'envisaging'
p140
VEH
p141
sS'microcredits'
p142
VM
sS'teratogenicity'
p143
VT
sS'frescos'
p144
VF
sS'gats'
p145
VG
sS'margallo'
p146
VM
sS'hor'
p147
VHH
p148
sS'iiia'
p149
VIY
p150
sS'iiic'
p151
VAY
p152
sS'finalise'
p153
VF
sS'confederal'
p154
VK
sS'utilise'
p155
VY
sS'memoires'
p156
VM
sS'carinthia'
p157
VK
sS'underhand'
p158
VAH
p159
sS'publicised'
p160
VP
sS'marija'
p161
VM
sS'disassembly'
p162
VD
sS'undesired'
p163
VAH
p164
sS'endeavoured'
p165
VEH
p166
sS'rouses'
p167
VR
sS'centralisation'
p168
VS
sS'acidifying'
p169
VAH
p170
sS'parcours'
p171
VP
sS'sterilisation'
p172
VS
sS'offal'
p173
VAH
p174
sS'cascais'
p175
VK
sS'extents'
p176
VIH
p177
sS'europeanisation'
p178
VY
sS'fifg'
p179
VF
sS'priding'
p180
VP
sS'shipwrecked'
p181
VSH
p182
sS'telegrammatic'
p183
VT
sS'feedingstuff'
p184
VF
sS'galician'
p185
VG
sS'anweisungen'
p186
VAE
p187
sS'gligorov'
p188
VG
sS'incoherences'
p189
VIH
p190
sS'inadmissibility'
p191
VIH
p192
sS'literates'
p193
VL
sS'kirkhope'
p194
VK
sS'cle'
p195
VK
sS'abominations'
p196
VAH
p197
sS'encapsulates'
p198
VEH
p199
sS'carrefours'
p200
VK
sS'ftse'
p201
VEH
p202
sS'jackboot'
p203
VJH
p204
sS'centralising'
p205
VS
sS'reconverted'
p206
VR
sS'colourless'
p207
VK
sS'paronen'
p208
VP
sS'hatzidakis'
p209
VHH
p210
sS'hertfordshire'
p211
VHH
p212
sS'relaunching'
p213
VR
sS'mayoress'
p214
VM
sS'tuberculin'
p215
VT
sS'formalisation'
p216
VF
sS'souchet'
p217
VS
sS'rigour'
p218
VR
sS'regionalisation'
p219
VR
sS'privatisations'
p220
VP
sS'practising'
p221
VP
sS'extrajudicial'
p222
VIH
p223
sS'domicile'
p224
VD
sS'rt'
p225
VR
sS'rr'
p226
VR
sS'collaborates'
p227
VK
sS'recognising'
p228
VR
sS'sourced'
p229
VS
sS'ry'
p230
VR
sS'sintra'
p231
VS
sS'multicoloured'
p232
VM
sS'rg'
p233
VAA
p234
sS'unromantic'
p235
VAH
p236
sS'rc'
p237
VR
sS'sme'
p238
VS
sS'rh'
p239
VAA
p240
sS'communitisation'
p241
VK
sS'rk'
p242
VR
sS'padania'
p243
VP
sS'higgledy'
p244
VHH
p245
sS'bertel'
p246
VB
sS'collation'
p247
VK
sS'mudflats'
p248
VM
sS'sichrovsky'
p249
VS
sS'r4'
p250
VAA
p251
sS'hollowness'
p252
VHH
p253
sS'hainaut'
p254
VHH
p255
sS'redrafts'
p256
VR
sS'att'
p257
VAE
p258
sS'iso'
p259
VIY
p260
sS'isn'
p261
VIH
p262
sS'1970s'
p263
VAH
p264
sS'wipo'
p265
VW
sS'benchmarking'
p266
VB
sS'favoured'
p267
VF
sS'popularise'
p268
VP
sS'officious'
p269
VAH
p270
sS'operability'
p271
VAA
p272
sS'wasn'
p273
VW
sS'underspends'
p274
VAH
p275
sS'movimento'
p276
VM
sS'lega'
p277
VL
sS'activators'
p278
VAE
p279
sS'vitoria'
p280
VV
sS'mamre'
p281
VM
sS'staes'
p282
VS
sS'decentralised'
p283
VD
sS'cabling'
p284
VK
sS'romanies'
p285
VR
sS'sidelining'
p286
VS
sS'a32'
p287
VEY
p288
sS'bjerregaard'
p289
VB
sS'17a'
p290
VD
sS'nh3'
p291
VEH
p292
sS'schroedter'
p293
VSH
p294
sS'entente'
p295
VEH
p296
sS'reactivation'
p297
VR
sS'cisterna'
p298
VS
sS'fossilised'
p299
VF
sS'ghilardotti'
p300
VG
sS'whinging'
p301
VW
sS'democratique'
p302
VD
sS'auctoritas'
p303
VAO
p304
sS'verts'
p305
VV
sS'administrated'
p306
VAH
p307
sS'myller'
p308
VM
sS'jeopardise'
p309
VJH
p310
sS'unhcr'
p311
VAH
p312
sS'fathomless'
p313
VF
sS'brominated'
p314
VB
sS'drogheda'
p315
VD
sS'esto'
p316
VEH
p317
sS'communitise'
p318
VK
sS'overstrained'
p319
VOW
p320
sS'sysmin'
p321
VS
sS'denkta'
p322
VD
sS'colourful'
p323
VK
sS'kfor'
p324
VK
sS'paralyse'
p325
VP
sS'enshrining'
p326
VAH
p327
sS'omagh'
p328
VAH
p329
sS'guillemots'
p330
VG
sS'rationalisation'
p331
VR
sS'ohne'
p332
VOW
p333
sS'lothar'
p334
VL
sS'sud'
p335
VS
sS'bse'
p336
VB
sS'scaremongering'
p337
VS
sS'untempted'
p338
VAH
p339
sS'mobilised'
p340
VM
sS'lacuna'
p341
VL
sS'abh'
p342
VAE
p343
sS'thorning'
p344
VTH
p345
sS'trivialisation'
p346
VT
sS'charterer'
p347
VCH
p348
sS'cynegetic'
p349
VS
sS'unassailability'
p350
VAH
p351
sS'stocktaking'
p352
VS
sS'discourteous'
p353
VD
sS'inestimable'
p354
VIH
p355
sS'acquis'
p356
VAE
p357
sS'florenz'
p358
VF
sS'communiqu'
p359
VK
sS'ment'
p360
VM
sS'hrt'
p361
VHH
p362
sS'liberticidal'
p363
VL
sS'marinho'
p364
VM
sS'discretional'
p365
VD
sS'tsagaropoulou'
p366
VT
sS'quieres'
p367
VK
sS'ponnambalam'
p368
VP
sS'dm'
p369
VAH
p370
sS'dg'
p371
VJH
p372
sS'banotti'
p373
VB
sS'inelasticity'
p374
VIH
p375
sS'bradbourn'
p376
VB
sS'consorts'
p377
VK
sS'disequilibria'
p378
VD
sS'ispar'
p379
VAY
p380
sS'paedophiles'
p381
VP
sS'asturias'
p382
VAH
p383
sS'transhipped'
p384
VT
sS'ceyhun'
p385
VS
sS'ghettoisation'
p386
VG
sS'superstate'
p387
VS
sS'meps'
p388
VM
sS'ems'
p389
VEH
p390
sS'ardennes'
p391
VAA
p392
sS'flexibilising'
p393
VF
sS'offals'
p394
VAH
p395
sS'vandalised'
p396
VV
sS'middelhoek'
p397
VM
sS'1960s'
p398
VAH
p399
sS'stegrennan'
p400
VS
sS'helcom'
p401
VHH
p402
sS'supranationalism'
p403
VS
sS'co2'
p404
VK
sS'erhalten'
p405
VER
p406
sS'globalist'
p407
VG
sS'sakellariou'
p408
VS
sS'natura'
p409
VN
sS'liaise'
p410
VL
sS'geberlandes'
p411
VG
sS'visualise'
p412
VV
sS'inspectorates'
p413
VIH
p414
sS'auroi'
p415
VAO
p416
sS'mistimed'
p417
VM
sS'institutionalised'
p418
VIH
p419
sS'rapporteur'
p420
VR
sS'wto'
p421
VT
sS'civilised'
p422
VS
sS'pietrasanta'
p423
VP
sS'vallelersundi'
p424
VV
sS'sympathises'
p425
VS
sS'timescale'
p426
VT
sS'offloading'
p427
VAO
p428
sS'honouring'
p429
VAA
p430
sS'unapplied'
p431
VAH
p432
sS'2nd'
p433
VD
sS'minimised'
p434
VM
sS'godparent'
p435
VG
sS'rushailo'
p436
VR
sS'interrelations'
p437
VIH
p438
sS'levante'
p439
VL
sS'organisational'
p440
VAO
p441
sS'berenguer'
p442
VB
sS'recognises'
p443
VR
sS'frf'
p444
VF
sS'criticised'
p445
VK
sS'wisemen'
p446
VW
sS'recognised'
p447
VR
sS'josse'
p448
VJH
p449
sS'criticises'
p450
VK
sS'abuja'
p451
VAE
p452
sS'trojer'
p453
VT
sS'25o'
p454
VN
sS'beastly'
p455
VB
sS'criminalised'
p456
VK
sS'bizonal'
p457
VB
sS'criminalises'
p458
VK
sS'europeanist'
p459
VY
sS'skilfully'
p460
VS
sS'gnp'
p461
VEH
p462
sS'organisers'
p463
VAO
p464
sS'marginalised'
p465
VM
sS'atlantique'
p466
VAE
p467
sS'demonised'
p468
VD
sS'viii'
p469
VV
sS'aeroplane'
p470
VEH
p471
sS'ix'
p472
VIH
p473
sS'persecutory'
p474
VP
sS'daladier'
p475
VD
sS'derisory'
p476
VD
sS'nationalrat'
p477
VN
sS'iv'
p478
VAY
p479
sS'ii'
p480
VAY
p481
sS'iccat'
p482
VIH
p483
sS'theato'
p484
VTH
p485
sS'impasses'
p486
VIH
p487
sS'phare'
p488
VF
sS'sterckx'
p489
VS
sS'autarkic'
p490
VAO
p491
sS'coastguard'
p492
VK
sS'plimsoll'
p493
VP
sS'authorise'
p494
VAO
p495
sS'sovereignties'
p496
VS
sS'urquiola'
p497
VER
p498
sS'cederschi'
p499
VS
sS'gorsel'
p500
VG
sS'imbues'
p501
VIH
p502
sS'continentalisation'
p503
VK
sS'characterise'
p504
VK
sS'eusko'
p505
VY
sS'emphasise'
p506
VEH
p507
sS'devalues'
p508
VD
sS'nio'
p509
VN
sS'bolkestein'
p510
VB
sS'rogatory'
p511
VR
sS'mailshots'
p512
VM
sS'nationalisation'
p513
VN
sS'hadera'
p514
VHH
p515
sS'sperkhios'
p516
VS
sS'besque'
p517
VB
sS'centred'
p518
VS
sS'conciliations'
p519
VK
sS'paralysed'
p520
VP
sS'beavering'
p521
VB
sS'howitts'
p522
VHH
p523
sS'juridical'
p524
VJH
p525
sS'prioritising'
p526
VP
sS'crewed'
p527
VK
sS'elmar'
p528
VEH
p529
sS'harmonise'
p530
VHH
p531
sS'dogmas'
p532
VD
sS'yeu'
p533
VY
sS'dunams'
p534
VD
sS'biscay'
p535
VB
sS'europeanise'
p536
VY
sS'illipe'
p537
VIH
p538
sS'igal'
p539
VAY
p540
sS'5g'
p541
VG
sS'5a'
p542
VIY
p543
sS'5b'
p544
VB
sS'hedkvist'
p545
VHH
p546
sS'calvinists'
p547
VK
sS'sapar'
p548
VS
sS'kotka'
p549
VK
sS'silting'
p550
VS
sS'deckchairs'
p551
VD
sS'scrutinised'
p552
VS
sS'crudest'
p553
VK
sS'portuguesa'
p554
VP
sS'borr'
p555
VB
sS'wwf'
p556
VW
sS'evincing'
p557
VIY
p558
sS'polycentric'
p559
VP
sS'destabilising'
p560
VD
sS'cns'
p561
VS
sS'fascistic'
p562
VF
sS'unambitious'
p563
VAH
p564
sS'icg'
p565
VIH
p566
sS'honoured'
p567
VAA
p568
sS'ict'
p569
VIH
p570
sS'gollnisch'
p571
VG
sS'ecus'
p572
VIY
p573
sS'mollar'
p574
VM
sS'kandal'
p575
VK
sS'untiringly'
p576
VAH
p577
sS'voinet'
p578
VV
sS'tyres'
p579
VT
sS'euromed'
p580
VY
sS'collectivity'
p581
VK
sS'rationalisations'
p582
VR
sS'eec'
p583
VIY
p584
sS'depopulated'
p585
VD
sS'coraz'
p586
VK
sS'dineh'
p587
VD
sS'discourtesy'
p588
VD
sS'ppe'
p589
VP
sS'resourcing'
p590
VR
sS'nought'
p591
VN
sS'22a'
p592
VD
sS'ussr'
p593
VAH
p594
sS'1990s'
p595
VAH
p596
sS'multifunctional'
p597
VM
sS'duping'
p598
VD
sS'nihilo'
p599
VN
sS'internalisation'
p600
VIH
p601
sS'abjectly'
p602
VAE
p603
sS'att3'
p604
VAE
p605
sS'noirmoutier'
p606
VN
sS'oomen'
p607
VOW
p608
sS'irreprehensible'
p609
VIH
p610
sS'quousque'
p611
VK
sS'rapex'
p612
VR
sS'comart'
p613
VK
sS'therefrom'
p614
VTH
p615
sS'foro'
p616
VF
sS'straggly'
p617
VS
sS'solidar'
p618
VS
sS'semiological'
p619
VS
sS'analyse'
p620
VAE
p621
sS'so2'
p622
VS
sS'transregional'
p623
VT
sS'canfranc'
p624
VK
sS'solas'
p625
VS
sS'heteronomous'
p626
VHH
p627
sS'charterers'
p628
VCH
p629
sS'individualised'
p630
VIH
p631
sS'centralist'
p632
VS
sS'lello'
p633
VL
sS'transnationality'
p634
VT
sS'westendorp'
p635
VW
sS'centralise'
p636
VS
sS'erdf'
p637
VER
p638
sS'dreifuss'
p639
VD
sS'meagre'
p640
VM
sS'fuster'
p641
VF
sS'regurgitating'
p642
VR
sS'regularisation'
p643
VR
sS'liberalise'
p644
VL
sS'phytosanitary'
p645
VF
sS'ionian'
p646
VAY
p647
sS'merseyside'
p648
VM
sS'nl'
p649
VEH
p650
sS'zana'
p651
VZ
sS'nf'
p652
VEH
p653
sS'unsustainability'
p654
VAH
p655
sS'rspb'
p656
VR
sS'charente'
p657
VCH
p658
sS'mediaeval'
p659
VM
sS'jurti'
p660
VJH
p661
sS'babitsky'
p662
VB
sS'boumediene'
p663
VB
sS'vetches'
p664
VV
sS'functionalist'
p665
VF
sS'crystallised'
p666
VK
sS'ringholm'
p667
VR
sS'calibre'
p668
VK
sS'crystallise'
p669
VK
sS'stabex'
p670
VS
sS'aquacultures'
p671
VAE
p672
sS'roo'
p673
VR
sS'amiens'
p674
VEY
p675
sS'reformulating'
p676
VR
sS'tses'
p677
VT
sS'lethargically'
p678
VL
sS'swingeing'
p679
VS
sS'interrelatedness'
p680
VIH
p681
sS'rationalised'
p682
VR
sS'trepca'
p683
VT
sS'smes'
p684
VS
sS'ostreiculture'
p685
VAO
p686
sS'stagiaires'
p687
VS
sS'aspe'
p688
VAE
p689
sS'21st'
p690
VEH
p691
sS'bioplastic'
p692
VB
sS'summarises'
p693
VS
sS'taylorism'
p694
VT
sS'underpins'
p695
VAH
p696
sS'vez'
p697
VV
sS'silencers'
p698
VS
sS'summarised'
p699
VS
sS'euskal'
p700
VY
sS'caillaux'
p701
VK
sS'additionality'
p702
VAH
p703
sS'georgievski'
p704
VJH
p705
sS'mooted'
p706
VM
sS'decreeing'
p707
VD
sS'salsigne'
p708
VS
sS'mobilise'
p709
VM
sS'aspirational'
p710
VAE
p711
sS'mintoff'
p712
VM
sS'magps'
p713
VM
sS'litigable'
p714
VL
sS'consorted'
p715
VK
sS'viceconte'
p716
VV
sS'bilges'
p717
VB
sS'militarisation'
p718
VM
sS'alicante'
p719
VAE
p720
sS'hler'
p721
VHH
p722
sS'procacci'
p723
VP
sS'petersberg'
p724
VP
sS'landaburu'
p725
VL
sS'generalisations'
p726
VJH
p727
sS'unmik'
p728
VAH
p729
sS'minimis'
p730
VM
sS'disassociating'
p731
VD
sS'unmic'
p732
VAH
p733
sS'tsatsos'
p734
VT
sS'libertatum'
p735
VL
sS'eutrophying'
p736
VY
sS'favour'
p737
VF
sS'hushkitted'
p738
VHH
p739
sS'hotrec'
p740
VHH
p741
sS'guererro'
p742
VG
sS'ldcs'
p743
VEY
p744
sS'exceedances'
p745
VIH
p746
sS'honour'
p747
VAA
p748
sS'topicality'
p749
VT
sS'plooij'
p750
VP
sS'pretence'
p751
VP
sS'irrigates'
p752
VIH
p753
sS'suspensory'
p754
VS
sS'inflationist'
p755
VIH
p756
sS'maximising'
p757
VM
sS'scrapyards'
p758
VS
sS'interpretative'
p759
VIH
p760
sS'alyssandrakis'
p761
VAE
p762
sS'attwooll'
p763
VAH
p764
sS'humour'
p765
VHH
p766
sS'keenness'
p767
VK
sS'noiz'
p768
VN
sS'queiro'
p769
VK
sS'europol'
p770
VY
sS'fbi'
p771
VEH
p772
sS'sensitised'
p773
VS
sS'ucits'
p774
VY
sS'antiracism'
p775
VAE
p776
sS'docups'
p777
VD
sS'gulags'
p778
VG
sS'altener'
p779
VAO
p780
sS'runnymede'
p781
VR
sS'dimokratia'
p782
VD
sS'msf'
p783
VM
sS'andr'
p784
VAE
p785
sS'untrammelled'
p786
VAH
p787
sS'tsarist'
p788
VT
sS'chocolatl'
p789
VCH
p790
sS'eneko'
p791
VEH
p792
sS'subsidisation'
p793
VS
sS'retrospection'
p794
VR
sS'maximise'
p795
VM
sS'upgradable'
p796
VAH
p797
sS'ovine'
p798
VOW
p799
sS'competitivity'
p800
VK
sS'marginalisation'
p801
VM
sS'emphasising'
p802
VEH
p803
sS'modernised'
p804
VM
sS'ibm'
p805
VIH
p806
sS'socialisation'
p807
VS
sS'lieneman'
p808
VL
sS'cabeza'
p809
VK
sS'trittin'
p810
VT
sS'indolence'
p811
VIH
p812
sS'usability'
p813
VY
sS'solbes'
p814
VS
sS'whiteboard'
p815
VHH
p816
sS'gillnets'
p817
VG
sS'1980s'
p818
VAH
p819
sS'detaching'
p820
VD
sS'wordings'
p821
VW
sS'14a'
p822
VD
sS'franconian'
p823
VF
sS'litre'
p824
VL
sS'conurbation'
p825
VK
sS'grosset'
p826
VG
sS'scornfully'
p827
VS
sS'naivety'
p828
VN
sS'hawksbill'
p829
VHH
p830
sS'repulsion'
p831
VR
sS'cecaf'
p832
VS
sS'strictness'
p833
VS
sS'unsorted'
p834
VAH
p835
sS'liberalisation'
p836
VL
sS'neighbourliness'
p837
VN
sS'imbeni'
p838
VIH
p839
sS'motorway'
p840
VM
sS'subrogate'
p841
VS
sS'teratogenic'
p842
VT
sS'pilate'
p843
VP
sS'atat'
p844
VEY
p845
sS'forestier'
p846
VF
sS'deve'
p847
VD
sS'ss'
p848
VEH
p849
sS'sp'
p850
VS
sS'sv'
p851
VEH
p852
sS'idc'
p853
VAY
p854
sS'sj'
p855
VSH
p856
sS'neighbourhoods'
p857
VN
sS'paternalist'
p858
VP
sS'irresolute'
p859
VIH
p860
sS'rumoured'
p861
VR
sS'characterisations'
p862
VK
sS'councillor'
p863
VK
sS'blacklists'
p864
VB
sS'maij'
p865
VM
sS'nol'
p866
VN
sS'applecart'
p867
VAE
p868
sS'recommenced'
p869
VR
sS'illogically'
p870
VIH
p871
sS'widescale'
p872
VW
sS'contravened'
p873
VK
sS'polyaromatic'
p874
VP
sS'nox'
p875
VN
sS'lancker'
p876
VL
sS'contravenes'
p877
VK
sS'maladministration'
p878
VM
sS'nos'
p879
VN
sS'hulten'
p880
VHH
p881
sS'gemelli'
p882
VJH
p883
sS'rebalance'
p884
VR
sS'finuoli'
p885
VF
sS'realise'
p886
VR
sS'hydrological'
p887
VHH
p888
sS'teaux'
p889
VT
sS'terr'
p890
VT
sS'caudillos'
p891
VK
sS'retarders'
p892
VR
sS'kkinen'
p893
VK
sS'tannock'
p894
VT
sS'communitising'
p895
VK
sS'ec'
p896
VEH
p897
sS'ostracised'
p898
VAA
p899
sS'ez'
p900
VEH
p901
sS'eu'
p902
VY
sS'ep'
p903
VEH
p904
sS'tisza'
p905
VT
sS'adduced'
p906
VAH
p907
sS'olendorf'
p908
VAA
p909
sS'racan'
p910
VR
sS'ugarten'
p911
VY
sS'ieke'
p912
VIY
p913
sS'alfanyurt'
p914
VAE
p915
sS'busybody'
p916
VB
sS'retrodisplacement'
p917
VR
sS'reformulation'
p918
VR
sS'inessential'
p919
VAY
p920
sS'ospar'
p921
VAA
p922
sS'penalising'
p923
VP
sS'aznar'
p924
VAE
p925
sS'schnellhardt'
p926
VSH
p927
sS'undesirably'
p928
VAH
p929
sS'apologising'
p930
VAH
p931
sS'industrialised'
p932
VIH
p933
sS'invalidity'
p934
VIH
p935
sS'feedingstuffs'
p936
VF
sS'rapporteurs'
p937
VR
sS'reductionist'
p938
VR
sS'reclassifications'
p939
VR
sS'xx'
p940
VK
sS'wallonian'
p941
VW
sS'ctes'
p942
VEH
p943
sS'dramatised'
p944
VD
sS'ocha'
p945
VAA
p946
sS'modernise'
p947
VM
sS'reorganising'
p948
VR
sS'1c'
p949
VS
sS'immortalised'
p950
VIH
p951
sS'modernisation'
p952
VM
sS'clamouring'
p953
VK
sS'asymmetric'
p954
VEY
p955
sS'pnv'
p956
VAE
p957
sS'imputations'
p958
VIH
p959
sS'gastroenteritis'
p960
VG
sS'interreg'
p961
VIH
p962
sS'optimise'
p963
VAA
p964
sS'grammes'
p965
VG
sS'modelled'
p966
VM
sS'eurosceptic'
p967
VY
sS'interservice'
p968
VIH
p969
sS'standardised'
p970
VS
sS'scandalised'
p971
VS
sS'eudor'
p972
VOY
p973
sS'watercourses'
p974
VW
sS'sahel'
p975
VS
sS'urbanisation'
p976
VER
p977
sS'dynamically'
p978
VD
sS'demotivation'
p979
VD
sS'seabirds'
p980
VS
sS'unowned'
p981
VY
sS'barzanti'
p982
VB
sS'karelia'
p983
VK
sS'wct'
p984
VW
sS'leinster'
p985
VL
sS'55th'
p986
VAH
p987
sS'algarve'
p988
VAE
p989
sS'carrilho'
p990
VK
sS'authorising'
p991
VAO
p992
sS'degassing'
p993
VD
sS'authorised'
p994
VAO
p995
sS'errez'
p996
VEH
p997
sS'renan'
p998
VR
sS'ecac'
p999
VIY
p1000
sS'bourlanges'
p1001
VB
sS'incentivise'
p1002
VIH
p1003
sS'iniquitous'
p1004
VIH
p1005
sS'padanian'
p1006
VP
sS'folketing'
p1007
VF
sS'methodologically'
p1008
VM
sS'ksila'
p1009
VS
sS'rfler'
p1010
VR
sS'obiols'
p1011
VOW
p1012
sS'colegislator'
p1013
VK
sS'antiracist'
p1014
VAE
p1015
sS'readmission'
p1016
VR
sS'rebalanced'
p1017
VR
sS'manoeuvre'
p1018
VM
sS'apulia'
p1019
VAE
p1020
sS'schoolmasterish'
p1021
VS
sS'blace'
p1022
VB
sS'coherences'
p1023
VK
sS'godlike'
p1024
VG
sS'buttiglione'
p1025
VB
sS'gew'
p1026
VJH
p1027
sS'enumerations'
p1028
VAH
p1029
sS'remoter'
p1030
VR
sS'interregional'
p1031
VIH
p1032
sS'honours'
p1033
VAA
p1034
sS'sisyphus'
p1035
VS
sS'undemanding'
p1036
VAH
p1037
sS'hombach'
p1038
VHH
p1039
sS'segni'
p1040
VS
sS'cuxhaven'
p1041
VK
sS'diversities'
p1042
VD
sS'abano'
p1043
VAA
p1044
sS'cordiale'
p1045
VK
sS'ence'
p1046
VEH
p1047
sS'jettons'
p1048
VJH
p1049
sS'malmstr'
p1050
VM
sS'obejct'
p1051
VAH
p1052
sS'guterres'
p1053
VG
sS'cavalese'
p1054
VK
sS'poena'
p1055
VP
sS'obfuscates'
p1056
VAA
p1057
sS'roure'
p1058
VR
sS'compliances'
p1059
VK
sS'harmonised'
p1060
VHH
p1061
sS'legale'
p1062
VL
sS'misinterpretations'
p1063
VM
sS'wallonia'
p1064
VW
sS'foisting'
p1065
VF
sS'feasibilities'
p1066
VF
sS'colours'
p1067
VK
sS'recognisable'
p1068
VR
sS'harmonises'
p1069
VHH
p1070
sS'recourses'
p1071
VR
sS'innovatively'
p1072
VIH
p1073
sS'conformism'
p1074
VK
sS'tacis'
p1075
VT
sS'tanio'
p1076
VT
sS'scrutinise'
p1077
VS
sS'militarised'
p1078
VM
sS'beguin'
p1079
VB
sS'roadworthiness'
p1080
VR
sS'rostock'
p1081
VR
sS'antisemite'
p1082
VAE
p1083
sS'cips'
p1084
VS
sS'jerrymandering'
p1085
VJH
p1086
sS'rivalled'
p1087
VR
sS'generalisation'
p1088
VJH
p1089
sS'shamefully'
p1090
VSH
p1091
sS'twix'
p1092
VT
sS'harbouring'
p1093
VHH
p1094
sS'marriageable'
p1095
VM
sS'promptness'
p1096
VP
sS'reworded'
p1097
VR
sS'delocalisation'
p1098
VD
sS'mainstreamed'
p1099
VM
sS'millimetre'
p1100
VM
sS'practises'
p1101
VP
sS'korakas'
p1102
VK
sS'cfsp'
p1103
VEH
p1104
sS'arta'
p1105
VAA
p1106
sS'sessional'
p1107
VS
sS'dadaist'
p1108
VD
sS'practised'
p1109
VP
sS'dovetailing'
p1110
VD
sS'renewables'
p1111
VR
sS'spongiform'
p1112
VS
sS'6c'
p1113
VS
sS'derogation'
p1114
VD
sS'legislations'
p1115
VL
sS'paedophilia'
p1116
VP
sS'precariousness'
p1117
VP
sS'bmw'
p1118
VM
sS'specialised'
p1119
VS
sS'legitimise'
p1120
VL
sS'eib'
p1121
VAY
p1122
sS'efterl'
p1123
VEH
p1124
sS'accessions'
p1125
VAH
p1126
sS'specialises'
p1127
VS
sS'prescriptive'
p1128
VP
sS'demilitarised'
p1129
VD
sS'stabilising'
p1130
VS
sS'caprine'
p1131
VK
sS'echternach'
p1132
VEH
p1133
sS'blak'
p1134
VB
sS'trentin'
p1135
VT
sS'quaestors'
p1136
VK
sS'litres'
p1137
VL
sS'clientelism'
p1138
VK
sS'turmes'
p1139
VT
sS'geostrategic'
p1140
VJH
p1141
sS'pau'
p1142
VP
sS'ultimum'
p1143
VAH
p1144
sS'reanimate'
p1145
VR
sS'enquiries'
p1146
VEH
p1147
sS'putin'
p1148
VP
sS'legitimises'
p1149
VL
sS'riis'
p1150
VR
sS'dogmatisers'
p1151
VD
sS'ronique'
p1152
VR
sS'despatched'
p1153
VD
sS'sahrawi'
p1154
VS
sS'ois'
p1155
VOY
p1156
sS'legitimised'
p1157
VL
sS'pures'
p1158
VP
sS'politicisation'
p1159
VP
sS'toadied'
p1160
VT
sS'biotopes'
p1161
VB
sS'nchez'
p1162
VN
sS'synthesises'
p1163
VS
sS'codex'
p1164
VK
sS'taxifolia'
p1165
VT
sS'frontispiece'
p1166
VF
sS'rewording'
p1167
VR
sS'grappa'
p1168
VG
sS'renationalised'
p1169
VR
sS'gdp'
p1170
VJH
p1171
sS'anthropometric'
p1172
VAE
p1173
sS'comitology'
p1174
VK
sS'criminalise'
p1175
VK
sS'fvo'
p1176
VF
sS'xxviiith'
p1177
VS
sS'euros'
p1178
VY
sS'preventatively'
p1179
VP
sS'favouring'
p1180
VF
sS'glavany'
p1181
VG
sS'legitimisation'
p1182
VL
sS'roissy'
p1183
VR
sS'countrywomen'
p1184
VK
sS'aeroplanes'
p1185
VEH
p1186
sS'culinaire'
p1187
VK
sS'offence'
p1188
VAH
p1189
sS'fallowing'
p1190
VF
sS'pse'
p1191
VS
sS'basest'
p1192
VB
sS'compartmentalisation'
p1193
VK
sS'legalised'
p1194
VL
sS'penalised'
p1195
VP
sS'directorates'
p1196
VD
sS'montesquieu'
p1197
VM
sS'institutionalisation'
p1198
VIH
p1199
sS'supernumeraries'
p1200
VS
sS'gratifyingly'
p1201
VG
sS'tajo'
p1202
VT
sS'fulfil'
p1203
VF
sS'putrefaction'
p1204
VP
sS'neutralised'
p1205
VN
sS'csfs'
p1206
VEH
p1207
sS'heartlands'
p1208
VHH
p1209
sS'normalisation'
p1210
VN
sS'complementarity'
p1211
VK
sS'competences'
p1212
VK
sS'dissociated'
p1213
VD
sS'centralised'
p1214
VS
sS'ddr'
p1215
VD
sS'defenceless'
p1216
VD
sS'unmovic'
p1217
VAH
p1218
sS'reorientated'
p1219
VR
sS'antipathetic'
p1220
VAE
p1221
sS'cercas'
p1222
VS
sS'angelilli'
p1223
VAA
p1224
sS'decentralise'
p1225
VD
sS'teleworking'
p1226
VT
sS'tdi'
p1227
VT
sS'ratifications'
p1228
VR
sS'valletta'
p1229
VV
sS'contrario'
p1230
VK
sS'carefulness'
p1231
VK
sS'pluralist'
p1232
VP
sS'forgetfulness'
p1233
VF
sS'rauf'
p1234
VR
sS'caulerpa'
p1235
VK
sS'turkistan'
p1236
VT
sS'diptych'
p1237
VD
sS'coincineration'
p1238
VK
sS'confederations'
p1239
VK
sS'acs'
p1240
VAE
p1241
sS'delimitation'
p1242
VD
sS'acp'
p1243
VAE
p1244
sS'scandalously'
p1245
VS
sS'albacete'
p1246
VAE
p1247
sS'guigou'
p1248
VG
sS'abattoir'
p1249
VAH
p1250
sS'garc'
p1251
VG
sS'derogating'
p1252
VD
sS'dipecho'
p1253
VD
sS'councillors'
p1254
VK
sS'dustbins'
p1255
VD
sS'stabilisation'
p1256
VS
sS'het'
p1257
VHH
p1258
sS'eulogises'
p1259
VY
sS'scrs'
p1260
VS
sS'decentralising'
p1261
VD
sS'endeavouring'
p1262
VEH
p1263
sS'loi'
p1264
VL
sS'namhong'
p1265
VN
sS'dislocates'
p1266
VD
sS'preachifying'
p1267
VP
sS'labelling'
p1268
VL
sS'arte'
p1269
VAA
p1270
sS'discriminations'
p1271
VD
sS'oversteps'
p1272
VOW
p1273
sS'roseira'
p1274
VR
sS'ecemis'
p1275
VAH
p1276
sS'scorning'
p1277
VS
sS'fipol'
p1278
VF
sS'censures'
p1279
VS
sS'conakry'
p1280
VK
sS'usted'
p1281
VAH
p1282
sS'universalist'
p1283
VY
sS'oostlander'
p1284
VUW
p1285
sS'300g'
p1286
VG
sS'buesa'
p1287
VB
sS'inflexibilities'
p1288
VIH
p1289
sS'criminalisation'
p1290
VK
sS'lvarez'
p1291
VL
sS'gonz'
p1292
VG
sS'subjugating'
p1293
VS
sS'twinnings'
p1294
VT
sS'schipol'
p1295
VS
sS'igc'
p1296
VAY
p1297
sS'stabilised'
p1298
VS
sS'poos'
p1299
VP
sS'superannuated'
p1300
VS
sS'deliveryman'
p1301
VD
sS'dishonour'
p1302
VD
sS'quelque'
p1303
VK
sS'a5'
p1304
VAE
p1305
sS'a4'
p1306
VAE
p1307
sS'recognise'
p1308
VR
sS'cermis'
p1309
VS
sS'redressed'
p1310
VR
sS'hieronymi'
p1311
VHH
p1312
sS'websites'
p1313
VW
sS'thors'
p1314
VDH
p1315
sS'opportunely'
p1316
VAA
p1317
sS'rezala'
p1318
VR
sS'coreper'
p1319
VK
sS'ivoire'
p1320
VIH
p1321
sS'sch'
p1322
VSH
p1323
sS'unrestrainable'
p1324
VAH
p1325
sS'diamantopoulou'
p1326
VD
sS'overexploiting'
p1327
VOW
p1328
sS'moratinos'
p1329
VM
sS'fiducia'
p1330
VF
sS'tain'
p1331
VT
sS'adana'
p1332
VAA
p1333
sS'1930s'
p1334
VAH
p1335
sS'driftnets'
p1336
VD
sS'sceptically'
p1337
VS
sS'homepage'
p1338
VHH
p1339
sS'endogenous'
p1340
VEH
p1341
sS'subsidiarity'
p1342
VS
sS'weshalb'
p1343
VW
sS'apologised'
p1344
VAH
p1345
sS'regularise'
p1346
VR
sS'wavers'
p1347
VW
sS'icao'
p1348
VIY
p1349
sS'syllabuses'
p1350
VS
sS'alleanza'
p1351
VAA
p1352
sS'mps'
p1353
VM
sS'24th'
p1354
VAH
p1355
sS'yrynen'
p1356
VY
sS'generalised'
p1357
VJH
p1358
sS'pigmeat'
p1359
VP
sS'katiforis'
p1360
VK
sS'17th'
p1361
VAH
p1362
sS'marvellous'
p1363
VM
sS'ageing'
p1364
VAH
p1365
sS'minore'
p1366
VM
sS'rengie'
p1367
VR
sS'legalisation'
p1368
VL
sS'20th'
p1369
VAH
p1370
sS'overstretched'
p1371
VOW
p1372
sS'brucellosis'
p1373
VB
sS'communitarisation'
p1374
VK
sS'husbanded'
p1375
VHH
p1376
sS'honourably'
p1377
VAA
p1378
sS'denouncement'
p1379
VD
sS'qmv'
p1380
VK
sS'timescales'
p1381
VT
sS'honourable'
p1382
VAA
p1383
sS'rato'
p1384
VR
sS'titley'
p1385
VT
sS'provan'
p1386
VP
sS'billposters'
p1387
VB
sS'teu'
p1388
VT
sS'penalise'
p1389
VP
sS'theonas'
p1390
VTH
p1391
sS'abb'
p1392
VAE
p1393
sS'abc'
p1394
VAE
p1395
sS'sua'
p1396
VS
sS'ejido'
p1397
VEY
p1398
sS'floodtide'
p1399
VF
sS'correcta'
p1400
VK
sS'abm'
p1401
VAE
p1402
sS'carpegna'
p1403
VK
sS'reziproken'
p1404
VR
sS'passiveness'
p1405
VP
sS'vall'
p1406
VV
sS'rgensen'
p1407
VR
sS'seiten'
p1408
VS
sS'favourably'
p1409
VF
sS'behaviour'
p1410
VB
sS'europarl'
p1411
VY
sS'fratricidal'
p1412
VF
sS'encephalopathies'
p1413
VEH
p1414
sS'emancipatory'
p1415
VAH
p1416
sS'eurodac'
p1417
VY
sS'osce'
p1418
VAO
p1419
sS'wogau'
p1420
VW
sS'50s'
p1421
VAH
p1422
sS'renunciations'
p1423
VR
sS'hilfen'
p1424
VHH
p1425
sS'euratom'
p1426
VY
sS'rugovo'
p1427
VR
sS'utilisation'
p1428
VY
sS'rutnet'
p1429
VR
sS'2000s'
p1430
VAH
p1431
sS'vit'
p1432
VV
sS'tesauro'
p1433
VT
sS'executable'
p1434
VEH
p1435
sS'intersectoral'
p1436
VIH
p1437
sS'wijkman'
p1438
VW
sS'oecd'
p1439
VOW
p1440
sS'budgetisation'
p1441
VB
sS'doubtlessly'
p1442
VD
sS'voggenhuber'
p1443
VV
sS'underprivileged'
p1444
VAH
p1445
sS'demining'
p1446
VD
sS'auvergne'
p1447
VOW
p1448
sS'uncomprehending'
p1449
VAH
p1450
sS'industrialisation'
p1451
VIH
p1452
sS'acheneau'
p1453
VAH
p1454
sS'cofinanced'
p1455
VK
sS'bicommunal'
p1456
VB
sS'kla'
p1457
VK
sS'disinheriting'
p1458
VD
sS'klm'
p1459
VK
sS'sociale'
p1460
VS
sS'revitalising'
p1461
VR
sS'stregrennan'
p1462
VS
sS'bides'
p1463
VB
sS'kitzsteinhorn'
p1464
VK
sS'infectivity'
p1465
VIH
p1466
sS'dubiously'
p1467
VD
sS'publicise'
p1468
VP
sS'eaggf'
p1469
VIY
p1470
sS'csf'
p1471
VEH
p1472
sS'unsystematically'
p1473
VAH
p1474
sS'refoulement'
p1475
VR
sS'csu'
p1476
VS
sS'ssel'
p1477
VS
sS'ssen'
p1478
VS
sS'civilisation'
p1479
VS
sS'fp'
p1480
VF
sS'fr'
p1481
VF
sS'inconceivably'
p1482
VIH
p1483
sS'limpopo'
p1484
VL
sS'ff'
p1485
VF
sS'pharmaceutiques'
p1486
VF
sS'conditio'
p1487
VK
sS'misnamed'
p1488
VM
sS'neuwerk'
p1489
VN
sS'misanthropic'
p1490
VM
sS'essere'
p1491
VEH
p1492
sS'unreservedly'
p1493
VAH
p1494
sS'lepos'
p1495
VL
sS'skilful'
p1496
VS
sS'isd'
p1497
VAY
p1498
sS'sebasti'
p1499
VS
sS'itl'
p1500
VIH
p1501
sS'traceability'
p1502
VT
sS'khmelnitsky'
p1503
VK
sS'blokland'
p1504
VB
sS'uctis'
p1505
VAH
p1506
sS'ruijten'
p1507
VR
sS'roadworthy'
p1508
VR
sS'ffh'
p1509
VF
sS'telluric'
p1510
VT
sS'factortame'
p1511
VF
sS'flimsier'
p1512
VF
sS'menceau'
p1513
VM
sS'labours'
p1514
VL
sS'unpolluted'
p1515
VAH
p1516
sS'andalusians'
p1517
VAE
p1518
sS'secondment'
p1519
VS
sS'bendit'
p1520
VB
sS'straitjacketed'
p1521
VS
sS'forbear'
p1522
VF
sS'gmos'
p1523
VM
sS'reordered'
p1524
VR
sS'ceo'
p1525
VS
sS'cen'
p1526
VS
sS'cem'
p1527
VS
sS'impostures'
p1528
VIH
p1529
sS'ectaa'
p1530
VEH
p1531
sS'addenda'
p1532
VAH
p1533
sS'huhne'
p1534
VHH
p1535
sS'ortuondo'
p1536
VAO
p1537
sS'americanisation'
p1538
VAH
p1539
sS'aglietta'
p1540
VAA
p1541
sS'2a'
p1542
VIY
p1543
sS'authorisation'
p1544
VAO
p1545
sS'vatanen'
p1546
VV
sS'laxer'
p1547
VL
sS'exclusiveness'
p1548
VIH
p1549
sS'organises'
p1550
VAO
p1551
sS'366a'
p1552
VD
sS'organised'
p1553
VAO
p1554
sS'synchronised'
p1555
VS
sS'todo'
p1556
VT
sS'shamefaced'
p1557
VSH
p1558
sS'meijer'
p1559
VM
sS'realising'
p1560
VR
sS'jesuitical'
p1561
VJH
p1562
sS'doddle'
p1563
VD
sS'reorganised'
p1564
VR
sS'reappearing'
p1565
VR
sS'wadden'
p1566
VW
sS'brovina'
p1567
VB
sS'beurre'
p1568
VB
sS'stigmatises'
p1569
VS
sS'tesiegel'
p1570
VT
sS'housebound'
p1571
VHH
p1572
sS'organising'
p1573
VAO
p1574
sS'ispa'
p1575
VAY
p1576
sS'baringdorf'
p1577
VB
sS'lavarra'
p1578
VL
sS'oligarchies'
p1579
VAA
p1580
sS'oisin'
p1581
VOY
p1582
sS'marfil'
p1583
VM
sS'ruination'
p1584
VR
sS'krarup'
p1585
VK
sS'shoah'
p1586
VSH
p1587
sS'responsibilisation'
p1588
VR
sS'ouvri'
p1589
VUW
p1590
sS'rhinotracheitis'
p1591
VR
sS'xenophobe'
p1592
VZ
sS'harbours'
p1593
VHH
p1594
sS'symbolised'
p1595
VS
sS'avec'
p1596
VAA
p1597
sS'lagendijk'
p1598
VL
sS'symbolises'
p1599
VS
sS'forevermore'
p1600
VF
sS'fruitfully'
p1601
VF
sS'overcautious'
p1602
VOW
p1603
sS'subsidise'
p1604
VS
sS'contre'
p1605
VK
sS'uncultured'
p1606
VAH
p1607
sS'mudflat'
p1608
VM
sS'geremek'
p1609
VJH
p1610
sS'schr'
p1611
VS
sS'zimeray'
p1612
VZ
sS'refilling'
p1613
VR
sS'cosv'
p1614
VK
sS'submissively'
p1615
VS
sS'aan'
p1616
VAA
p1617
sS'dans'
p1618
VD
sS'hoti'
p1619
VHH
p1620
sS'reorganisations'
p1621
VR
sS'wastage'
p1622
VW
sS'galit'
p1623
VG
sS'pluri'
p1624
VP
sS'passant'
p1625
VP
sS'prefigure'
p1626
VP
sS'homeworking'
p1627
VHH
p1628
sS'awoken'
p1629
VAH
p1630
sS'reorganisation'
p1631
VR
sS'larcher'
p1632
VL
sS'kartellamt'
p1633
VK
sS'imf'
p1634
VIH
p1635
sS'rechar'
p1636
VR
sS'bovines'
p1637
VB
sS'parece'
p1638
VP
sS'k2'
p1639
VK
sS'clich'
p1640
VK
sS'instatement'
p1641
VIH
p1642
sS'efa'
p1643
VEH
p1644
sS'herri'
p1645
VHH
p1646
sS'efe'
p1647
VIY
p1648
sS'hotchpotch'
p1649
VHH
p1650
sS'corus'
p1651
VK
sS'diversed'
p1652
VD
sS'kratsa'
p1653
VK
sS'privatised'
p1654
VP
sS'physico'
p1655
VF
sS'ludford'
p1656
VL
sS'kg'
p1657
VG
sS'focussing'
p1658
VF
sS'penalisation'
p1659
VP
sS'km'
p1660
VK
sS'ltcm'
p1661
VL
sS'elucidating'
p1662
VAH
p1663
sS'retardants'
p1664
VR
sS'morillon'
p1665
VM
sS'expedients'
p1666
VIH
p1667
sS'vilamoura'
p1668
VV
sS'stepwise'
p1669
VS
sS'ecsc'
p1670
VEH
p1671
sS'betokens'
p1672
VB
sS'vigour'
p1673
VV
sS'criticising'
p1674
VK
sS'trialogue'
p1675
VT
sS'hiv'
p1676
VHH
p1677
sS'ingushetia'
p1678
VIH
p1679
sS'evregenis'
p1680
VEH
p1681
sS'harwich'
p1682
VHH
p1683
sS'reorganise'
p1684
VR
sS'ceecs'
p1685
VS
sS'unua'
p1686
VAH
p1687
sS'afsj'
p1688
VAE
p1689
sS'rensen'
p1690
VR
sS'sustainably'
p1691
VS
sS'overburdening'
p1692
VOW
p1693
sS'irresolvable'
p1694
VIH
p1695
sS'carlotti'
p1696
VK
sS'fyrom'
p1697
VF
sS'corruptibility'
p1698
VK
sS'laan'
p1699
VL
sS'hexavalent'
p1700
VHH
p1701
sS'cherrypick'
p1702
VCH
p1703
sS'quecedo'
p1704
VK
sS'eurosceptics'
p1705
VY
sS'pvc'
p1706
VK
sS'conjuncture'
p1707
VK
sS'sem'
p1708
VS
sS'giorgos'
p1709
VJH
p1710
sS'sek'
p1711
VS
sS'insidiously'
p1712
VIH
p1713
sS'unacknowledged'
p1714
VAH
p1715
sS'timeworn'
p1716
VT
sS'backhandedness'
p1717
VB
sS'fundability'
p1718
VF
sS'rachidi'
p1719
VR
sS'speediness'
p1720
VS
sS'morgantini'
p1721
VM
sS'baltas'
p1722
VB
sS'democratisation'
p1723
VD
sS'tajani'
p1724
VT
sS'hecke'
p1725
VHH
p1726
sS'rightholders'
p1727
VR
sS'pedagogic'
p1728
VP
sS'randzio'
p1729
VR
sS'tropospheric'
p1730
VT
sS'adr'
p1731
VAE
p1732
sS'windedness'
p1733
VW
sS'xenophobes'
p1734
VZ
sS'inquisitorial'
p1735
VIH
p1736
sS'intergovernmentalisation'
p1737
VIH
p1738
sS'busquin'
p1739
VB
sS'lacaci'
p1740
VL
sS'nikitin'
p1741
VN
sS'behoves'
p1742
VB
sS'birdal'
p1743
VB
sS'retable'
p1744
VR
sS'tauern'
p1745
VT
sS'mg'
p1746
VEH
p1747
sS'viout'
p1748
VV
sS'subsidised'
p1749
VS
sS'olle'
p1750
VAA
p1751
sS'furanes'
p1752
VF
sS'fibres'
p1753
VF
sS'revolutionising'
p1754
VR
sS'publicising'
p1755
VP
sS'pr'
p1756
VP
sS'pt'
p1757
VEY
p1758
sS'bowis'
p1759
VB
sS'unavowed'
p1760
VAH
p1761
sS'requisitioning'
p1762
VR
sS'brushstrokes'
p1763
VB
sS'frassoni'
p1764
VF
sS'cornillet'
p1765
VK
sS'commendably'
p1766
VK
sS'favelas'
p1767
VF
sS'1950s'
p1768
VAH
p1769
sS'ultraliberal'
p1770
VAH
p1771
sS'elst'
p1772
VEH
p1773
sS'schori'
p1774
VS
sS'oberbayern'
p1775
VAA
p1776
sS'raouf'
p1777
VR
sS'mla'
p1778
VM
sS'laxness'
p1779
VL
sS'volksunie'
p1780
VV
sS'iucn'
p1781
VIY
p1782
sS'fense'
p1783
VF
sS'governability'
p1784
VG
sS'slobo'
p1785
VS
sS'mpla'
p1786
VM
sS'elucidation'
p1787
VAH
p1788
sS'marginalise'
p1789
VM
sS'rationalising'
p1790
VR
sS'dg1'
p1791
VD
sS'lacklustre'
p1792
VL
sS'welshman'
p1793
VW
sS'lvaro'
p1794
VL
sS'quadras'
p1795
VK
sS'ewc'
p1796
VEH
p1797
sS'hushkits'
p1798
VHH
p1799
sS'constitutionalisation'
p1800
VK
sS'sightedness'
p1801
VS
sS'rambouillet'
p1802
VR
sS'scientifiques'
p1803
VS
sS'unestablished'
p1804
VAH
p1805
sS'liberalised'
p1806
VL
sS'liba'
p1807
VL
sS'marset'
p1808
VM
sS'obnova'
p1809
VAH
p1810
sS'fulfilment'
p1811
VF
sS'dgs'
p1812
VJH
p1813
sS'haarder'
p1814
VHH
p1815
sS'gsp'
p1816
VZ
sS'prioritised'
p1817
VP
sS'globalised'
p1818
VG
sS'forestation'
p1819
VF
sS'prioritises'
p1820
VP
sS'mobilising'
p1821
VM
sS'ionising'
p1822
VAY
p1823
sS'gsm'
p1824
VJH
p1825
sS'fraisse'
p1826
VF
sS'feira'
p1827
VF
sS'typologies'
p1828
VT
sS'unnoted'
p1829
VAH
p1830
sS'transboundary'
p1831
VT
sS'overflown'
p1832
VOW
p1833
sS'alpes'
p1834
VAH
p1835
sS'ngigkeit'
p1836
VG
sS'nestl'
p1837
VN
sS'sheepmeat'
p1838
VSH
p1839
sS'madariaga'
p1840
VM
sS'indigestible'
p1841
VIH
p1842
sS'3and'
p1843
VAA
p1844
sS'47th'
p1845
VAH
p1846
sS'coastguards'
p1847
VK
sS'erikas'
p1848
VEH
p1849
sS'hauliers'
p1850
VHH
p1851
sS'ammokhostos'
p1852
VAE
p1853
sS'aggregation'
p1854
VAE
p1855
sS'rling'
p1856
VR
sS'monika'
p1857
VM
sS'barricading'
p1858
VB
sS'cadou'
p1859
VK
sS'timetabling'
p1860
VT
sS'microcredit'
p1861
VM
sS'aridity'
p1862
VER
p1863
sS'harmonising'
p1864
VHH
p1865
sS'abattoirs'
p1866
VAH
p1867
sS'eurojus'
p1868
VY
sS'pirker'
p1869
VP
sS'eea'
p1870
VIY
p1871
sS'summarise'
p1872
VS
sS'channelled'
p1873
VCH
p1874
sS'uncompromised'
p1875
VAH
p1876
sS'wombs'
p1877
VW
sS'urba'
p1878
VER
p1879
sS'30s'
p1880
VAH
p1881
sS'metres'
p1882
VM
sS'representativeness'
p1883
VR
sS'b5'
p1884
VB
sS'hectolitres'
p1885
VHH
p1886
sS'b1'
p1887
VB
sS'b2'
p1888
VB
sS'publica'
p1889
VP
sS'30a'
p1890
VD
sS'suanzes'
p1891
VS
sS'manisco'
p1892
VM
sS'begrudges'
p1893
VB
sS'tampere'
p1894
VT
sS'attac'
p1895
VEY
p1896
sS'morbihan'
p1897
VM
sS'proc'
p1898
VP
sS'inhumanities'
p1899
VIH
p1900
sS'faslane'
p1901
VF
sS'icrc'
p1902
VAY
p1903
sS'bn'
p1904
VB
sS'neutre'
p1905
VN
sS'bp'
p1906
VB
sS'employability'
p1907
VEH
p1908
sS'br'
p1909
VB
sS'neighbourhood'
p1910
VN
sS'analysing'
p1911
VAE
p1912
sS'minurso'
p1913
VM
sS'megalomaniacs'
p1914
VM
sS'esterno'
p1915
VEH
p1916
sS'sukarnoputri'
p1917
VS
sS'cossutta'
p1918
VK
sS'wherefores'
p1919
VHH
p1920
sS'bureaux'
p1921
VB
sS'remodelled'
p1922
VR
sS'ndez'
p1923
VN
sS'helpfulness'
p1924
VHH
p1925
sS'atxalandabaso'
p1926
VAE
p1927
sS'nder'
p1928
VN
sS'yobs'
p1929
VY
sS'akkuyu'
p1930
VAE
p1931
sS'circuitously'
p1932
VS
sS'elorza'
p1933
VEH
p1934
sS'favourable'
p1935
VF
sS'legalise'
p1936
VL
sS'hudghton'
p1937
VHH
p1938
sS'papoutsis'
p1939
VP
sS'derogations'
p1940
VD
sS'lothringen'
p1941
VL
sS'plantin'
p1942
VP
sS'realisation'
p1943
VR
sS'visae'
p1944
VV
sS'parez'
p1945
VP
sS'maaten'
p1946
VM
sS'waffen'
p1947
VW
sS'lldc'
p1948
VS
sS'falun'
p1949
VF
sS'abovementioned'
p1950
VAH
p1951
sS'quetzalcoatl'
p1952
VK
sS'bazin'
p1953
VB
sS'pangolin'
p1954
VP
sS'holidaymakers'
p1955
VHH
p1956
sS'bluefin'
p1957
VB
sS'swiebel'
p1958
VS
sS'devolving'
p1959
VD
sS'elnosa'
p1960
VEH
p1961
sS'monnet'
p1962
VM
sS'jonckheer'
p1963
VHH
p1964
sS'subjectively'
p1965
VS
sS'congratulates'
p1966
VK
sS'governo'
p1967
VG
sS'maximised'
p1968
VM
sS'svend'
p1969
VS
sS'hrkop'
p1970
VHH
p1971
sS'sixthly'
p1972
VS
sS'posidonia'
p1973
VP
sS'agronomic'
p1974
VAH
p1975
sS'practise'
p1976
VP
sS'cis'
p1977
VS
sS'erkki'
p1978
VER
p1979
sS'minamata'
p1980
VM
sS'cip'
p1981
VS
sS'nsch'
p1982
VN
sS'maximises'
p1983
VM
sS'uk'
p1984
VAH
p1985
sS'sapard'
p1986
VS
sS'prejudgements'
p1987
VP
sS'polarised'
p1988
VP
sS'escb'
p1989
VEH
p1990
sS'euroworks'
p1991
VY
sS'scrapie'
p1992
VS
sS'kn'
p1993
VK
sS'weggen'
p1994
VW
sS'formalise'
p1995
VF
sS'nationalise'
p1996
VN
sS'bureaucratise'
p1997
VB
sS'exup'
p1998
VEH
p1999
sS'elles'
p2000
VEH
p2001
sS'samuli'
p2002
VS
sS'individualisation'
p2003
VIH
p2004
sS'multipliers'
p2005
VM
sS'eldr'
p2006
VEH
p2007
sS'priori'
p2008
VP
sS'computerised'
p2009
VK
sS'gra'
p2010
VG
sS'organise'
p2011
VAO
p2012
sS'eurosystem'
p2013
VY
sS'pintassilgo'
p2014
VP
sS'berthing'
p2015
VB
sS'finalised'
p2016
VF
sS'korhola'
p2017
VK
sS'practicalities'
p2018
VP
sS'weitergef'
p2019
VV
sS'galvanised'
p2020
VG
sS'suchil'
p2021
VS
sS'overladen'
p2022
VOW
p2023
sS'digressive'
p2024
VD
sS'overlong'
p2025
VOW
p2026
sS'holey'
p2027
VHH
p2028
sS'flautre'
p2029
VF
sS'svc'
p2030
VS
sS'casaca'
p2031
VK
sS'utilised'
p2032
VY
sS'neighbouring'
p2033
VN
sS'compounders'
p2034
VK
sS'unef'
p2035
VUW
p2036
sS'communautaire'
p2037
VK
sS'sclope'
p2038
VS
sS'edf'
p2039
VEH
p2040
sS'gr'
p2041
VG
sS'edd'
p2042
VEH
p2043
sS'denktash'
p2044
VD
sS'rivne'
p2045
VR
sS'cofinance'
p2046
VK
sS'ge'
p2047
VJH
p2048
sS'conditionalities'
p2049
VK
sS'legitimising'
p2050
VL
sS'eurofederalist'
p2051
VY
sS'mollifying'
p2052
VM
sS'resourced'
p2053
VR
sS'blindingly'
p2054
VB
sS'vetch'
p2055
VV
sS'plcs'
p2056
VP
sS'demilitarising'
p2057
VD
sS'onesta'
p2058
VAH
p2059
sS'g7'
p2060
VAH
p2061
sS'enslaves'
p2062
VEH
p2063
sS'spinelessness'
p2064
VS
sS'neighbourly'
p2065
VN
sS'revitalise'
p2066
VR
sS'vitorino'
p2067
VV
sS'g8'
p2068
VAH
p2069
sS'mitrovica'
p2070
VM
sS'traumatised'
p2071
VT
sS'materialise'
p2072
VM
sS'ruinously'
p2073
VR
sS'farrago'
p2074
VF
sS'insuperable'
p2075
VIH
p2076
sS'brovinas'
p2077
VB
sS'speroni'
p2078
VS
sS'leavers'
p2079
VL
sS'kinsmen'
p2080
VK
sS'depositories'
p2081
VD
sS'alia'
p2082
VAA
p2083
sS'bleiben'
p2084
VB
sS'materialised'
p2085
VM
sS'uen'
p2086
VY
sS'cfi'
p2087
VIY
p2088
sS'mortalities'
p2089
VM
sS'raninsy'
p2090
VR
sS'cofinancing'
p2091
VK
sS'croo'
p2092
VK
sS'barnier'
p2093
VB
sS'zu'
p2094
VZ
sS'kouchner'
p2095
VK
sS'cfp'
p2096
VEH
p2097
sS'valdivielso'
p2098
VV
sS'infrastrucutres'
p2099
VIH
p2100
sS'ukip'
p2101
VY
sS'calorific'
p2102
VK
sS'chickpeas'
p2103
VCH
p2104
sS'coccidiostats'
p2105
VK
sS'kreissl'
p2106
VK
sS'stedt'
p2107
VS
sS'3b'
p2108
VB
sS'pristina'
p2109
VP
sS'implementable'
p2110
VIH
p2111
sS'flavourings'
p2112
VF
sS'scepticism'
p2113
VS
sS'transhipment'
p2114
VT
sS'50th'
p2115
VAH
p2116
sS'herritarrok'
p2117
VHH
p2118
sS'misdemeanours'
p2119
VM
sS'phonograms'
p2120
VF
sS'ambit'
p2121
VAE
p2122
sS'wiebenga'
p2123
VW
sS'lipietz'
p2124
VL
sS'haulier'
p2125
VHH
p2126
sS'lez'
p2127
VL
sS'tindouf'
p2128
VT
sS'proscribing'
p2129
VP
sS'lentejas'
p2130
VL
sS'metre'
p2131
VM
sS'harmonisation'
p2132
VHH
p2133
sS'remits'
p2134
VR
sS'flavour'
p2135
VF
sS'victimised'
p2136
VV
sS'leucosis'
p2137
VL
sS'taxman'
p2138
VT
sS'backhanders'
p2139
VB
sS'138a'
p2140
VD
sS'stenmarck'
p2141
VS
sS'michiel'
p2142
VM
sS'kurti'
p2143
VK
sS'apm'
p2144
VAE
p2145
sS'dejas'
p2146
VD
sS'consignments'
p2147
VK
sS'usd'
p2148
VAH
p2149
sS'feo'
p2150
VF
sS'mobilisation'
p2151
VM
sS'extractive'
p2152
VIH
p2153
sS'wiliness'
p2154
VW
sS'sceptics'
p2155
VS
sS'piqu'
p2156
VP
sS'eutrophication'
p2157
VY
sS'assessable'
p2158
VAH
p2159
sS'nassauer'
p2160
VN
sS'contravening'
p2161
VK
sS'iii'
p2162
VIY
p2163
sS'immuration'
p2164
VIH
p2165
sS'lannoye'
p2166
VL
sS'unrivalled'
p2167
VAH
p2168
sS'entreprises'
p2169
VAA
p2170
sS'fulfils'
p2171
VF
sS'transmissible'
p2172
VT
sS'flechard'
p2173
VF
sS'moluccans'
p2174
VM
sS'votre'
p2175
VV
sS'exonerations'
p2176
VIH
p2177
sS'sinti'
p2178
VS
sS'vireaid'
p2179
VV
sS'bonemeal'
p2180
VB
sS'prioritise'
p2181
VP
sS'mealtimes'
p2182
VM
sS'pretexts'
p2183
VP
sS'marginalising'
p2184
VM
sS'optimised'
p2185
VAA
p2186
sS'summery'
p2187
VS
sS'parlous'
p2188
VP
sS'dimitrakopoulos'
p2189
VD
sS'herzogenrath'
p2190
VHH
p2191
sS'timetabled'
p2192
VT
sS'timeframes'
p2193
VT
sS'verheugen'
p2194
VV
sS'tacs'
p2195
VT
sS'reinstallation'
p2196
VR
sS'dockyards'
p2197
VD
sS'javette'
p2198
VZH
p2199
sS'marpol'
p2200
VM
sS'glasshouses'
p2201
VG
sS'npt'
p2202
VEH
p2203
sS'ultraliberalism'
p2204
VAH
p2205
sS'kindermann'
p2206
VK
sS'sidelong'
p2207
VS
sS'adjectival'
p2208
VAH
p2209
sS'b7'
p2210
VB
sS'hydrogeological'
p2211
VHH
p2212
sS'convenor'
p2213
VK
sS'favourites'
p2214
VF
sS'bipartite'
p2215
VB
sS'politicised'
p2216
VP
sS'europeanised'
p2217
VY
sS'saramago'
p2218
VS
sS'savoyard'
p2219
VS
sS'compostela'
p2220
VK
sS'offences'
p2221
VAH
p2222
sS'thyself'
p2223
VTH
p2224
sS'hrad'
p2225
VHH
p2226
sS'finalising'
p2227
VF
sS'll'
p2228
VL
sS'equalise'
p2229
VIY
p2230
sS'sinecure'
p2231
VS
sS'puerta'
p2232
VP
sS'fitto'
p2233
VF
sS'eieck'
p2234
VAY
p2235
sS'communitised'
p2236
VK
sS'eur'
p2237
VER
p2238
sS'unacceptability'
p2239
VAH
p2240
sS'emphasised'
p2241
VEH
p2242
sS'spelt'
p2243
VS
sS'alimentarius'
p2244
VAE
p2245
sS'emphasises'
p2246
VEH
p2247
sS'stabilise'
p2248
VS
sS'codetermination'
p2249
VK
sS'boetticher'
p2250
VB
sS'kilometres'
p2251
VK
sS'krehl'
p2252
VK
sS'expels'
p2253
VIH
p2254
sS'avocat'
p2255
VAE
p2256
sS'renationalise'
p2257
VR
sS'dafydd'
p2258
VD
sS'globalphobes'
p2259
VG
sS'sandb'
p2260
VS
sS'despots'
p2261
VD
sS'baulk'
p2262
VB
sS'outworking'
p2263
VAW
p2264
sS'tente'
p2265
VT
sS'casuistry'
p2266
VK
sS'sion'
p2267
VS
sS'gargani'
p2268
VG
sS'programmes'
p2269
VP
sS'ecofin'
p2270
VIH
p2271
sS'saviours'
p2272
VS
sS'scrapies'
p2273
VS
sS'multiannual'
p2274
VM
sS'liberalising'
p2275
VL
sS'posteriori'
p2276
VP
sS'favours'
p2277
VF
sS'siena'
p2278
VS
sS'cyanogen'
p2279
VS
sS'standardisation'
p2280
VS
sS'ece'
p2281
VEH
p2282
sS'ecb'
p2283
VEH
p2284
sS'piecyk'
p2285
VP
sS'undp'
p2286
VAH
p2287
sS'ecu'
p2288
VEH
p2289
sS'symbolise'
p2290
VS
sS'alchemists'
p2291
VAE
p2292
sS'zimmerling'
p2293
VZ
sS'equalisation'
p2294
VIY
p2295
sS'libertarianism'
p2296
VL
sS'klagenfurt'
p2297
VK
sS'interinstitutional'
p2298
VIH
p2299
sS'externalisation'
p2300
VIH
p2301
sS'prioritisation'
p2302
VP
sS'modernising'
p2303
VM
sS'thessaloniki'
p2304
VTH
p2305
sS'clamour'
p2306
VK
sS'fertiliser'
p2307
VF
sS'maccormick'
p2308
VM
sS'savour'
p2309
VS
sS'emas'
p2310
VEH
p2311
sS'echr'
p2312
VEH
p2313
sS'demoralised'
p2314
VD
sS'ponderously'
p2315
VP
sS'unabating'
p2316
VAH
p2317
sS'lom'
p2318
VL
sS'jarzembowski'
p2319
VJH
p2320
sS'macrofinancial'
p2321
VM
sS'spillages'
p2322
VS
sS'joaqu'
p2323
VJH
p2324
sS'blinkered'
p2325
VB
sS'peijs'
p2326
VP
sS'pronk'
p2327
VP
sS'papayannakis'
p2328
VP
sS'anaemia'
p2329
VAE
p2330
sS'aquavit'
p2331
VAH
p2332
sS'moluccas'
p2333
VM
sS'masochists'
p2334
VM
sS'inuits'
p2335
VIH
p2336
sS'postgraduate'
p2337
VP
sS'apologise'
p2338
VAH
p2339
sS'folias'
p2340
VF
sS'udb'
p2341
VAH
p2342
sS'pradier'
p2343
VP
sS'romagna'
p2344
VR
sS'wppt'
p2345
VW
sS'incongruities'
p2346
VIH
p2347
sS'150g'
p2348
VG
sS'labourers'
p2349
VL
sS'popularised'
p2350
VP
sS'ber'
p2351
VB
sS'duisenberg'
p2352
VD
sS'berthu'
p2353
VB
sS'labouring'
p2354
VL
sS'arousa'
p2355
VER
p2356
sS'orthomixomicrovirus'
p2357
VAO
p2358
sS'faim'
p2359
VF
sS'capitulating'
p2360
VK
sS'propuesta'
p2361
VP
sS'multipartite'
p2362
VM
sS'vlaamsblok'
p2363
VV
sS'recantations'
p2364
VR
sS'pretentiously'
p2365
VP
sS'iopcf'
p2366
VAY
p2367
sS'karamanou'
p2368
VK
sS'coresponsibility'
p2369
VK
sS'familiarise'
p2370
VF
sS'multifunctionality'
p2371
VM
sS'relativises'
p2372
VR
sS'bronislaw'
p2373
VB
sS'flagellation'
p2374
VF
sS'energise'
p2375
VEH
p2376
sS'formers'
p2377
VF
sS'instil'
p2378
VIH
p2379
sS'lutte'
p2380
VL
sS'haiders'
p2381
VHH
p2382
sS'salafranca'
p2383
VS
sS'seguro'
p2384
VS
sS'reconcilable'
p2385
VR
sS'bombastically'
p2386
VB
sS'noire'
p2387
VN
sS'wilful'
p2388
VW
sS'sceptical'
p2389
VS
sS'regionality'
p2390
VR
sS'authorisations'
p2391
VAO
p2392
sS'succour'
p2393
VS
sS'kargil'
p2394
VK
sS'juristic'
p2395
VJH
p2396
sS'ngl'
p2397
VEH
p2398
sS'xviiith'
p2399
VK
sS'pressurised'
p2400
VP
sS'vlaams'
p2401
VV
sS'loutish'
p2402
VL
sS'minimising'
p2403
VM
sS'destabilisation'
p2404
VD
sS'postulated'
p2405
VP
sS'democratising'
p2406
VD
sS'renationalisation'
p2407
VR
sS'mga'
p2408
VEH
p2409
sS'tributyl'
p2410
VT
sS'manifestos'
p2411
VM
sS'tbt'
p2412
VT
sS'decentralisation'
p2413
VD
sS'regionalists'
p2414
VR
sS'ultraperipheral'
p2415
VAH
p2416
sS'unprejudiced'
p2417
VAH
p2418
sS'conglomerations'
p2419
VK
sS'exportation'
p2420
VEH
p2421
sS'transposition'
p2422
VT
sS'somport'
p2423
VS
sS'wilhelmshaven'
p2424
VW
sS'categorised'
p2425
VK
sS'gbp'
p2426
VB
sS'graa'
p2427
VG
sS'ohim'
p2428
VOW
p2429
sS'suominen'
p2430
VS
sS'irrefutably'
p2431
VIH
p2432
sS'monocultures'
p2433
VM
sS'langenhagen'
p2434
VL
sS'hotting'
p2435
VHH
p2436
sS'btf'
p2437
VB
sS'mercifulness'
p2438
VM
sS'despoiled'
p2439
VD
sS'shepherdstown'
p2440
VSH
p2441
sS'bedevilled'
p2442
VB
sS'kalamanov'
p2443
VK
sS'diese'
p2444
VD
sS'thoughtlessness'
p2445
VTH
p2446
sS'bedfordshire'
p2447
VB
sS'responsibilise'
p2448
VR
sS'globalisation'
p2449
VG
sS'americanically'
p2450
VAH
p2451
sS'unseaworthy'
p2452
VAH
p2453
sS'leyla'
p2454
VL
sS'combated'
p2455
VK
sS'jov'
p2456
VJH
p2457
sS'ld'
p2458
VAH
p2459
sS'chaquelan'
p2460
VSH
p2461
sS'cymru'
p2462
VS
sS'rutelli'
p2463
VR
sS'eta'
p2464
VIY
p2465
sS'utilising'
p2466
VY
sS'avil'
p2467
VAE
p2468
sS'cl'
p2469
VK
sS'colonisation'
p2470
VK
sS'maliakos'
p2471
VM
sS'cf'
p2472
VIY
p2473
sS'ce'
p2474
VS
sS'hm3'
p2475
VAH
p2476
sS'vend'
p2477
VV
sS'juger'
p2478
VJH
p2479
sS'cr'
p2480
VK
sS'uck'
p2481
VAH
p2482
sS'regenerative'
p2483
VR
sS'cu'
p2484
VK
sS'authorises'
p2485
VAO
p2486
sS'codecisions'
p2487
VK
sS'bizarrely'
p2488
VB
sS'ecips'
p2489
VEH
p2490
sS'azad'
p2491
VAH
p2492
sS'minimise'
p2493
VM
sS'externalising'
p2494
VIH
p2495
sS'otc'
p2496
VAO
p2497
sS'exploiters'
p2498
VIH
p2499
sS'neighbour'
p2500
VN
sS'patriotisms'
p2501
VP
sS'mouskouri'
p2502
VM
sS'subparagraph'
p2503
VS
sS'paasilinna'
p2504
VP
sS'frameworks'
p2505
VF
sS'synergistically'
p2506
VS
sS'intranet'
p2507
VIH
p2508
sS'backbenchers'
p2509
VB
sS'caudron'
p2510
VK
sS'lassitude'
p2511
VL
sS'galeote'
p2512
VG
sS'retabled'
p2513
VR
sS'hobbyhorse'
p2514
VHH
p2515
sS'monopolised'
p2516
VM
sS'kosovan'
p2517
VK
sS'biannually'
p2518
VB
sS'anthroprogenic'
p2519
VAE
p2520
sS'termism'
p2521
VT
sS'chapeau'
p2522
VSH
p2523
sS'vp'
p2524
VV
sS'pedalling'
p2525
VP
sS'kosovar'
p2526
VK
sS'philoxenia'
p2527
VF
sS'situ'
p2528
VS
sS'avc'
p2529
VAE
p2530
sS'rendaire'
p2531
VR
sS'justiciable'
p2532
VJH
p2533
sS'voivodina'
p2534
VV
sS'neyra'
p2535
VN
sS'codecision'
p2536
VK
sS'expediencies'
p2537
VIH
p2538
sS'fifthly'
p2539
VF
sS'brahim'
p2540
VB
sS'indivisibility'
p2541
VIH
p2542
sS'politicise'
p2543
VP
sS'garaud'
p2544
VG
sS'concordance'
p2545
VK
sS'vilagarcia'
p2546
VV
sS'standardising'
p2547
VS
sS'metamorphosing'
p2548
VM
sS'realises'
p2549
VR
sS'giorgios'
p2550
VJH
p2551
sS'colour'
p2552
VK
sS'underspent'
p2553
VAH
p2554
sS'neorealist'
p2555
VN
sS'herinneringen'
p2556
VHH
p2557
sS'hushkit'
p2558
VHH
p2559
sS'kuckelkorn'
p2560
VK
sS'realised'
p2561
VR
sS'abdications'
p2562
VAE
p2563
sS'juncker'
p2564
VJH
p2565
sS'carnero'
p2566
VK
sS'poettering'
p2567
VP
sS'disrupters'
p2568
VD
sS'flexibilisation'
p2569
VF
sS'crunchie'
p2570
VK
sS'antisemitism'
p2571
VAE
p2572
sS'hypocritically'
p2573
VHH
p2574
sS'gmo'
p2575
VM
sS'wallstr'
p2576
VW
sS'bedingungen'
p2577
VB
sS'nter'
p2578
VN
sS'cushnahan'
p2579
VK
sS'optimising'
p2580
VAA
p2581
sS'weu'
p2582
VW
sS'uncompromisingly'
p2583
VAH
p2584
sS'assistito'
p2585
VAH
p2586
sS'thoughtlessly'
p2587
VTH
p2588
sS'normalise'
p2589
VN
sS'poggiolini'
p2590
VP
sS'meaningfulness'
p2591
VM
sS'gorostiaga'
p2592
VG
sS'marketeering'
p2593
VM
sS'supping'
p2594
VS
sS'dures'
p2595
VD
sS'realit'
p2596
VR
sS'tarek'
p2597
VT
sS'candu'
p2598
VK
sS'maghreb'
p2599
VM
sS'dutroux'
p2600
VD
sS'colonising'
p2601
VK
sS'agusta'
p2602
VAA
p2603
sS'muscardini'
p2604
VM
sS'troposphere'
p2605
VT
sS'56th'
p2606
VAH
p2607
sS'itchen'
p2608
VIH
p2609
sS'thaci'
p2610
VTH
p2611
sS'abusively'
p2612
VAH
p2613
sS'desama'
p2614
VD
sS'conver'
p2615
VK
sS'transposing'
p2616
VT
sS'crewing'
p2617
VK
sS'rapkay'
p2618
VR
sS'14th'
p2619
VAH
p2620
sS'esf'
p2621
VEH
p2622
sS'esc'
p2623
VEH
p2624
sS'fudges'
p2625
VF
sS'esa'
p2626
VIY
p2627
sS'alkartasuna'
p2628
VAE
p2629
sS'analysed'
p2630
VAE
p2631
sS'sarre'
p2632
VS
sS'piggledy'
p2633
VP
sS'viviane'
p2634
VV
sS'cumulation'
p2635
VK
sS'kosovars'
p2636
VK
sS'zootechnical'
p2637
VZ
sS'chocoholics'
p2638
VCH
p2639
sS'transitive'
p2640
VT
sS'mammon'
p2641
VM
sS'mcduck'
p2642
VM
sS'localised'
p2643
VL
sS'unfavourable'
p2644
VAH
p2645
sS'aquacultural'
p2646
VAE
p2647
sS'disgracefully'
p2648
VD
sS'unfavourably'
p2649
VAH
p2650
sS'endeavours'
p2651
VEH
p2652
sS'tidied'
p2653
VT
sS'sahrawis'
p2654
VS
sS'desertification'
p2655
VD
sS'interethnic'
p2656
VIH
p2657
sS'liikanen'
p2658
VL
sS'rothley'
p2659
VR
sS'unwished'
p2660
VAH
p2661
sS'posselt'
p2662
VP
sS'dispensaries'
p2663
VD
sS'gretab'
p2664
VG
sS'institutionalising'
p2665
VIH
p2666
sS'finalisation'
p2667
VF
sS'demonising'
p2668
VD
sS'pernickety'
p2669
VP
sS'hm'
p2670
VAH
p2671
sS'bridgeheads'
p2672
VB
sS'wuori'
p2673
VW
sS'detestable'
p2674
VD
sS'macedonians'
p2675
VM
sS'minuted'
p2676
VM
sS'gaborone'
p2677
VG
sS'mistranslation'
p2678
VM
sS'simla'
p2679
VS
sS'galvanise'
p2680
VG
sS'destabilise'
p2681
VD
sS'hipc'
p2682
VHH
p2683
sS'democratise'
p2684
VD
sS'ini'
p2685
VIY
p2686
sS'intradermal'
p2687
VIH
p2688
sS'youthstart'
p2689
VY
sS'bartho'
p2690
VB
sS'postmen'
p2691
VP
sS'decourri'
p2692
VD
sS'subsonic'
p2693
VS
sS'oau'
p2694
VOW
p2695
sS'srms'
p2696
VS
sS'impositions'
p2697
VIH
p2698
sS'latterly'
p2699
VL
sS'standardise'
p2700
VS
sS'blameworthy'
p2701
VB
sS'1kg'
p2702
VG
sS'belder'
p2703
VB
sS'equalising'
p2704
VIY
p2705
sS'cheque'
p2706
VCH
p2707
sS'disjunction'
p2708
VD
sS'insipid'
p2709
VIH
p2710
sS'bce'
p2711
VB
sS'herbivores'
p2712
VHH
p2713
sS'entreat'
p2714
VEH
p2715
sS'trakatellis'
p2716
VT
sS'queir'
p2717
VK
s.