(dp1
S'schengen'
p2
VSH
p3
sS'brindisi'
p4
VB
sS'boilersuit'
p5
VB
sS'unice'
p6
VY
sS'geresta'
p7
VJH
p8
sS'collating'
p9
VK
sS'iuris'
p10
VY
sS'souladakis'
p11
VS
sS'batasuna'
p12
VB
sS'peripheries'
p13
VP
sS'veux'
p14
VV
sS'jeopardising'
p15
VJH
p16
sS'crisex'
p17
VK
sS'velzen'
p18
VV
sS'andalucia'
p19
VAE
p20
sS'characterises'
p21
VK
sS'parit'
p22
VP
sS'neighbours'
p23
VN
sS'brempt'
p24
VB
sS'characterised'
p25
VK
sS'categorisation'
p26
VK
sS'derogate'
p27
VD
sS'environnement'
p28
VEH
p29
sS'rashly'
p30
VR
sS'gligorov'
p31
VG
sS'diamantopoulou'
p32
VD
sS'saarc'
p33
VS
sS'jaca'
p34
VJH
p35
sS'achievability'
p36
VEY
p37
sS'murcia'
p38
VM
sS'subsidising'
p39
VS
sS'globalising'
p40
VG
sS'subprogrammes'
p41
VS
sS'markov'
p42
VM
sS'unauthorised'
p43
VAH
p44
sS'fogh'
p45
VF
sS'chev'
p46
VCH
p47
sS'interparliamentary'
p48
VIH
p49
sS'prising'
p50
VP
sS'capitalisation'
p51
VK
sS'ilisu'
p52
VIH
p53
sS'rouen'
p54
VR
sS'cantabrian'
p55
VK
sS'hundredfold'
p56
VHH
p57
sS'draftsperson'
p58
VD
sS'abogado'
p59
VAA
p60
sS'nen'
p61
VN
sS'faecal'
p62
VF
sS'milie'
p63
VM
sS'bandying'
p64
VB
sS'nea'
p65
VN
sS'alavanos'
p66
VAE
p67
sS'sittings'
p68
VS
sS'ner'
p69
VN
sS'ospar'
p70
VAA
p71
sS'watercourse'
p72
VW
sS'unmotivated'
p73
VAH
p74
sS'hemicycle'
p75
VHH
p76
sS'schierhuber'
p77
VSH
p78
sS'repugnance'
p79
VR
sS'ventilators'
p80
VV
sS'specialise'
p81
VS
sS'mep'
p82
VM
sS'mediagoguery'
p83
VM
sS'feedstuffs'
p84
VF
sS'antisemitic'
p85
VAE
p86
sS'chlorides'
p87
VK
sS'karit'
p88
VK
sS'yarmouth'
p89
VY
sS'scharping'
p90
VSH
p91
sS'oloron'
p92
VAA
p93
sS'ermua'
p94
VER
p95
sS'populaire'
p96
VP
sS'nulla'
p97
VN
sS'summarising'
p98
VS
sS'criticise'
p99
VK
sS'remedium'
p100
VR
sS'lldcs'
p101
VL
sS'sympathise'
p102
VS
sS'specialising'
p103
VS
sS'pontevedra'
p104
VP
sS'exceedance'
p105
VIH
p106
sS'cloven'
p107
VK
sS'rationalise'
p108
VR
sS'dalmau'
p109
VD
sS'eurojust'
p110
VY
sS'imperilling'
p111
VIH
p112
sS'sceptically'
p113
VS
sS'pomes'
p114
VP
sS'antidemocratic'
p115
VAE
p116
sS'nement'
p117
VN
sS'equalisation'
p118
VIY
p119
sS'oarsmen'
p120
VAO
p121
sS'enfopol'
p122
VEH
p123
sS'muss'
p124
VM
sS'resurfaces'
p125
VR
sS'stigmatise'
p126
VS
sS'equilateral'
p127
VEH
p128
sS'jeopardises'
p129
VJH
p130
sS'camre'
p131
VK
sS'civilisations'
p132
VS
sS'jeopardised'
p133
VJH
p134
sS'mp'
p135
VEH
p136
sS'radicalisation'
p137
VR
sS'quaestor'
p138
VK
sS'hayfork'
p139
VHH
p140
sS'envisaging'
p141
VEH
p142
sS'microcredits'
p143
VM
sS'teratogenicity'
p144
VT
sS'frescos'
p145
VF
sS'gats'
p146
VG
sS'margallo'
p147
VM
sS'hor'
p148
VHH
p149
sS'iiia'
p150
VIY
p151
sS'iiic'
p152
VAY
p153
sS'finalise'
p154
VF
sS'confederal'
p155
VK
sS'utilise'
p156
VY
sS'memoires'
p157
VM
sS'carinthia'
p158
VK
sS'underhand'
p159
VAH
p160
sS'publicised'
p161
VP
sS'marija'
p162
VM
sS'disassembly'
p163
VD
sS'undesired'
p164
VAH
p165
sS'endeavoured'
p166
VEH
p167
sS'rouses'
p168
VR
sS'ewc'
p169
VEH
p170
sS'syllabuses'
p171
VS
sS'parcours'
p172
VP
sS'materialise'
p173
VM
sS'sterilisation'
p174
VS
sS'mps'
p175
VM
sS'cascais'
p176
VK
sS'extents'
p177
VIH
p178
sS'europeanisation'
p179
VY
sS'fifg'
p180
VF
sS'priding'
p181
VP
sS'shipwrecked'
p182
VSH
p183
sS'telegrammatic'
p184
VT
sS'feedingstuff'
p185
VF
sS'galician'
p186
VG
sS'anweisungen'
p187
VAE
p188
sS'adige'
p189
VAE
p190
sS'incoherences'
p191
VIH
p192
sS'inadmissibility'
p193
VIH
p194
sS'literates'
p195
VL
sS'kirkhope'
p196
VK
sS'cle'
p197
VK
sS'abominations'
p198
VAH
p199
sS'encapsulates'
p200
VEH
p201
sS'carrefours'
p202
VK
sS'ftse'
p203
VEH
p204
sS'jackboot'
p205
VJH
p206
sS'centralising'
p207
VS
sS'reconverted'
p208
VR
sS'colourless'
p209
VK
sS'paronen'
p210
VP
sS'hatzidakis'
p211
VHH
p212
sS'hertfordshire'
p213
VHH
p214
sS'relaunching'
p215
VR
sS'mayoress'
p216
VM
sS'tuberculin'
p217
VT
sS'formalisation'
p218
VF
sS'souchet'
p219
VS
sS'rigour'
p220
VR
sS'regionalisation'
p221
VR
sS'privatisations'
p222
VP
sS'practising'
p223
VP
sS'extrajudicial'
p224
VIH
p225
sS'domicile'
p226
VD
sS'rt'
p227
VR
sS'rr'
p228
VR
sS'collaborates'
p229
VK
sS'recognising'
p230
VR
sS'ry'
p231
VR
sS'sintra'
p232
VS
sS'multicoloured'
p233
VM
sS'rg'
p234
VAA
p235
sS'unromantic'
p236
VAH
p237
sS'rc'
p238
VR
sS'sme'
p239
VS
sS'rh'
p240
VAA
p241
sS'communitisation'
p242
VK
sS'rk'
p243
VR
sS'obnova'
p244
VAH
p245
sS'higgledy'
p246
VHH
p247
sS'bertel'
p248
VB
sS'rutnet'
p249
VR
sS'mudflats'
p250
VM
sS'sichrovsky'
p251
VS
sS'r4'
p252
VAA
p253
sS'hollowness'
p254
VHH
p255
sS'hainaut'
p256
VHH
p257
sS'redrafts'
p258
VR
sS'att'
p259
VAE
p260
sS'iso'
p261
VIY
p262
sS'isn'
p263
VIH
p264
sS'1970s'
p265
VAH
p266
sS'benchmarking'
p267
VB
sS'favoured'
p268
VF
sS'popularise'
p269
VP
sS'officious'
p270
VAH
p271
sS'operability'
p272
VAA
p273
sS'laxer'
p274
VL
sS'underspends'
p275
VAH
p276
sS'movimento'
p277
VM
sS'lega'
p278
VL
sS'activators'
p279
VAE
p280
sS'vitoria'
p281
VV
sS'mamre'
p282
VM
sS'staes'
p283
VS
sS'decentralised'
p284
VD
sS'cabling'
p285
VK
sS'romanies'
p286
VR
sS'sidelining'
p287
VS
sS'a32'
p288
VEY
p289
sS'bjerregaard'
p290
VB
sS'17a'
p291
VD
sS'nh3'
p292
VEH
p293
sS'schroedter'
p294
VSH
p295
sS'entente'
p296
VEH
p297
sS'qmv'
p298
VK
sS'cisterna'
p299
VS
sS'fossilised'
p300
VF
sS'ghilardotti'
p301
VG
sS'whinging'
p302
VW
sS'modernisation'
p303
VM
sS'auctoritas'
p304
VAO
p305
sS'verts'
p306
VV
sS'administrated'
p307
VAH
p308
sS'myller'
p309
VM
sS'jeopardise'
p310
VJH
p311
sS'unhcr'
p312
VAH
p313
sS'fathomless'
p314
VF
sS'brominated'
p315
VB
sS'drogheda'
p316
VD
sS'esto'
p317
VEH
p318
sS'communitise'
p319
VK
sS'overstrained'
p320
VOW
p321
sS'sysmin'
p322
VS
sS'denkta'
p323
VD
sS'colourful'
p324
VK
sS'kfor'
p325
VK
sS'penalise'
p326
VP
sS'enshrining'
p327
VAH
p328
sS'omagh'
p329
VAH
p330
sS'guillemots'
p331
VG
sS'rationalisation'
p332
VR
sS'abb'
p333
VAE
p334
sS'lothar'
p335
VL
sS'abc'
p336
VAE
p337
sS'bse'
p338
VB
sS'ionising'
p339
VAY
p340
sS'untempted'
p341
VAH
p342
sS'mobilised'
p343
VM
sS'lacuna'
p344
VL
sS'ejido'
p345
VEY
p346
sS'thorning'
p347
VTH
p348
sS'trivialisation'
p349
VT
sS'charterer'
p350
VCH
p351
sS'cynegetic'
p352
VS
sS'unassailability'
p353
VAH
p354
sS'stocktaking'
p355
VS
sS'discourteous'
p356
VD
sS'romagna'
p357
VR
sS'acquis'
p358
VAE
p359
sS'florenz'
p360
VF
sS'communiqu'
p361
VK
sS'ment'
p362
VM
sS'hrt'
p363
VHH
p364
sS'liberticidal'
p365
VL
sS'marinho'
p366
VM
sS'discretional'
p367
VD
sS'tsagaropoulou'
p368
VT
sS'quieres'
p369
VK
sS'ponnambalam'
p370
VP
sS'dm'
p371
VAH
p372
sS'dg'
p373
VJH
p374
sS'banotti'
p375
VB
sS'inelasticity'
p376
VIH
p377
sS'bradbourn'
p378
VB
sS'consorts'
p379
VK
sS'disequilibria'
p380
VD
sS'ispar'
p381
VAY
p382
sS'paedophiles'
p383
VP
sS'asturias'
p384
VAH
p385
sS'transhipped'
p386
VT
sS'ceyhun'
p387
VS
sS'ghettoisation'
p388
VG
sS'meps'
p389
VM
sS'ems'
p390
VEH
p391
sS'ardennes'
p392
VAA
p393
sS'flexibilising'
p394
VF
sS'offals'
p395
VAH
p396
sS'vandalised'
p397
VV
sS'middelhoek'
p398
VM
sS'1960s'
p399
VAH
p400
sS'stegrennan'
p401
VS
sS'helcom'
p402
VHH
p403
sS'supranationalism'
p404
VS
sS'co2'
p405
VK
sS'erhalten'
p406
VER
p407
sS'globalist'
p408
VG
sS'sakellariou'
p409
VS
sS'natura'
p410
VN
sS'liaise'
p411
VL
sS'geberlandes'
p412
VG
sS'visualise'
p413
VV
sS'inspectorates'
p414
VIH
p415
sS'auroi'
p416
VAO
p417
sS'mistimed'
p418
VM
sS'institutionalised'
p419
VIH
p420
sS'rapporteur'
p421
VR
sS'wto'
p422
VT
sS'civilised'
p423
VS
sS'pietrasanta'
p424
VP
sS'vallelersundi'
p425
VV
sS'sympathises'
p426
VS
sS'timescale'
p427
VT
sS'offloading'
p428
VAO
p429
sS'honouring'
p430
VAA
p431
sS'unapplied'
p432
VAH
p433
sS'2nd'
p434
VD
sS'minimised'
p435
VM
sS'godparent'
p436
VG
sS'rushailo'
p437
VR
sS'interrelations'
p438
VIH
p439
sS'levante'
p440
VL
sS'organisational'
p441
VAO
p442
sS'berenguer'
p443
VB
sS'recognises'
p444
VR
sS'frf'
p445
VF
sS'criticised'
p446
VK
sS'wisemen'
p447
VW
sS'recognised'
p448
VR
sS'josse'
p449
VJH
p450
sS'criticises'
p451
VK
sS'abuja'
p452
VAE
p453
sS'dynamically'
p454
VD
sS'25o'
p455
VN
sS'beastly'
p456
VB
sS'criminalised'
p457
VK
sS'bizonal'
p458
VB
sS'criminalises'
p459
VK
sS'europeanist'
p460
VY
sS'skilfully'
p461
VS
sS'gnp'
p462
VEH
p463
sS'organisers'
p464
VAO
p465
sS'marginalised'
p466
VM
sS'atlantique'
p467
VAE
p468
sS'demonised'
p469
VD
sS'viii'
p470
VV
sS'aeroplane'
p471
VEH
p472
sS'ix'
p473
VIH
p474
sS'persecutory'
p475
VP
sS'daladier'
p476
VD
sS'derisory'
p477
VD
sS'nationalrat'
p478
VN
sS'iv'
p479
VAY
p480
sS'ii'
p481
VAY
p482
sS'iccat'
p483
VIH
p484
sS'theato'
p485
VTH
p486
sS'impasses'
p487
VIH
p488
sS'phare'
p489
VF
sS'sterckx'
p490
VS
sS'autarkic'
p491
VAO
p492
sS'coastguard'
p493
VK
sS'plimsoll'
p494
VP
sS'authorise'
p495
VAO
p496
sS'sovereignties'
p497
VS
sS'urquiola'
p498
VER
p499
sS'cederschi'
p500
VS
sS'gorsel'
p501
VG
sS'imbues'
p502
VIH
p503
sS'continentalisation'
p504
VK
sS'ammokhostos'
p505
VAE
p506
sS'eusko'
p507
VY
sS'emphasise'
p508
VEH
p509
sS'devalues'
p510
VD
sS'nio'
p511
VN
sS'bolkestein'
p512
VB
sS'rogatory'
p513
VR
sS'mailshots'
p514
VM
sS'nationalisation'
p515
VN
sS'hadera'
p516
VHH
p517
sS'sperkhios'
p518
VS
sS'besque'
p519
VB
sS'centred'
p520
VS
sS'conciliations'
p521
VK
sS'paralysed'
p522
VP
sS'beavering'
p523
VB
sS'howitts'
p524
VHH
p525
sS'juridical'
p526
VJH
p527
sS'prioritising'
p528
VP
sS'crewed'
p529
VK
sS'elmar'
p530
VEH
p531
sS'harmonise'
p532
VHH
p533
sS'dogmas'
p534
VD
sS'yeu'
p535
VY
sS'dunams'
p536
VD
sS'biscay'
p537
VB
sS'europeanise'
p538
VY
sS'illipe'
p539
VIH
p540
sS'igal'
p541
VAY
p542
sS'5g'
p543
VG
sS'5a'
p544
VIY
p545
sS'5b'
p546
VB
sS'hedkvist'
p547
VHH
p548
sS'calvinists'
p549
VK
sS'sapar'
p550
VS
sS'kotka'
p551
VK
sS'silting'
p552
VS
sS'deckchairs'
p553
VD
sS'scrutinised'
p554
VS
sS'crudest'
p555
VK
sS'portuguesa'
p556
VP
sS'borr'
p557
VB
sS'wwf'
p558
VW
sS'evincing'
p559
VIY
p560
sS'polycentric'
p561
VP
sS'destabilising'
p562
VD
sS'cns'
p563
VS
sS'fascistic'
p564
VF
sS'unambitious'
p565
VAH
p566
sS'icg'
p567
VIH
p568
sS'honoured'
p569
VAA
p570
sS'ict'
p571
VIH
p572
sS'gollnisch'
p573
VG
sS'ecus'
p574
VIY
p575
sS'mollar'
p576
VM
sS'kandal'
p577
VK
sS'untiringly'
p578
VAH
p579
sS'untrammelled'
p580
VAH
p581
sS'eneko'
p582
VEH
p583
sS'collectivity'
p584
VK
sS'rationalisations'
p585
VR
sS'channelled'
p586
VCH
p587
sS'depopulated'
p588
VD
sS'coraz'
p589
VK
sS'indigestible'
p590
VIH
p591
sS'dineh'
p592
VD
sS'discourtesy'
p593
VD
sS'ppe'
p594
VP
sS'resourcing'
p595
VR
sS'nought'
p596
VN
sS'22a'
p597
VD
sS'ussr'
p598
VAH
p599
sS'1990s'
p600
VAH
p601
sS'multifunctional'
p602
VM
sS'alfanyurt'
p603
VAE
p604
sS'internalisation'
p605
VIH
p606
sS'abjectly'
p607
VAE
p608
sS'att3'
p609
VAE
p610
sS'noirmoutier'
p611
VN
sS'oomen'
p612
VOW
p613
sS'irreprehensible'
p614
VIH
p615
sS'quousque'
p616
VK
sS'rapex'
p617
VR
sS'comart'
p618
VK
sS'therefrom'
p619
VTH
p620
sS'foro'
p621
VF
sS'straggly'
p622
VS
sS'solidar'
p623
VS
sS'semiological'
p624
VS
sS'analyse'
p625
VAE
p626
sS'so2'
p627
VS
sS'transregional'
p628
VT
sS'canfranc'
p629
VK
sS'solas'
p630
VS
sS'heteronomous'
p631
VHH
p632
sS'charterers'
p633
VCH
p634
sS'individualised'
p635
VIH
p636
sS'centralist'
p637
VS
sS'lello'
p638
VL
sS'ecac'
p639
VIY
p640
sS'westendorp'
p641
VW
sS'centralise'
p642
VS
sS'erdf'
p643
VER
p644
sS'dreifuss'
p645
VD
sS'meagre'
p646
VM
sS'fuster'
p647
VF
sS'regurgitating'
p648
VR
sS'regularisation'
p649
VR
sS'liberalise'
p650
VL
sS'phytosanitary'
p651
VF
sS'ionian'
p652
VAY
p653
sS'merseyside'
p654
VM
sS'nl'
p655
VEH
p656
sS'zana'
p657
VZ
sS'nf'
p658
VEH
p659
sS'unsustainability'
p660
VAH
p661
sS'rspb'
p662
VR
sS'charente'
p663
VCH
p664
sS'mediaeval'
p665
VM
sS'jurti'
p666
VJH
p667
sS'babitsky'
p668
VB
sS'boumediene'
p669
VB
sS'vetches'
p670
VV
sS'functionalist'
p671
VF
sS'crystallised'
p672
VK
sS'ringholm'
p673
VR
sS'crystallise'
p674
VK
sS'stabex'
p675
VS
sS'aquacultures'
p676
VAE
p677
sS'roo'
p678
VR
sS'amiens'
p679
VEY
p680
sS'reformulating'
p681
VR
sS'tses'
p682
VT
sS'lethargically'
p683
VL
sS'swingeing'
p684
VS
sS'interrelatedness'
p685
VIH
p686
sS'rationalised'
p687
VR
sS'trepca'
p688
VT
sS'smes'
p689
VS
sS'ostreiculture'
p690
VAO
p691
sS'stagiaires'
p692
VS
sS'aspe'
p693
VAE
p694
sS'21st'
p695
VEH
p696
sS'bioplastic'
p697
VB
sS'summarises'
p698
VS
sS'taylorism'
p699
VT
sS'wilful'
p700
VW
sS'vez'
p701
VV
sS'silencers'
p702
VS
sS'summarised'
p703
VS
sS'euskal'
p704
VY
sS'caillaux'
p705
VK
sS'additionality'
p706
VAH
p707
sS'georgievski'
p708
VJH
p709
sS'mooted'
p710
VM
sS'decreeing'
p711
VD
sS'salsigne'
p712
VS
sS'mobilise'
p713
VM
sS'bicommunal'
p714
VB
sS'mintoff'
p715
VM
sS'magps'
p716
VM
sS'litigable'
p717
VL
sS'consorted'
p718
VK
sS'viceconte'
p719
VV
sS'bilges'
p720
VB
sS'militarisation'
p721
VM
sS'alicante'
p722
VAE
p723
sS'hler'
p724
VHH
p725
sS'procacci'
p726
VP
sS'petersberg'
p727
VP
sS'landaburu'
p728
VL
sS'generalisations'
p729
VJH
p730
sS'unmik'
p731
VAH
p732
sS'minimis'
p733
VM
sS'disassociating'
p734
VD
sS'unmic'
p735
VAH
p736
sS'tsatsos'
p737
VT
sS'libertatum'
p738
VL
sS'eutrophying'
p739
VY
sS'favour'
p740
VF
sS'hushkitted'
p741
VHH
p742
sS'hotrec'
p743
VHH
p744
sS'guererro'
p745
VG
sS'ldcs'
p746
VEY
p747
sS'exceedances'
p748
VIH
p749
sS'honour'
p750
VAA
p751
sS'topicality'
p752
VT
sS'plooij'
p753
VP
sS'suspensory'
p754
VS
sS'inflationist'
p755
VIH
p756
sS'maximising'
p757
VM
sS'scrapyards'
p758
VS
sS'bp'
p759
VB
sS'alyssandrakis'
p760
VAE
p761
sS'attwooll'
p762
VAH
p763
sS'humour'
p764
VHH
p765
sS'keenness'
p766
VK
sS'pressurised'
p767
VP
sS'queiro'
p768
VK
sS'europol'
p769
VY
sS'legitimise'
p770
VL
sS'fbi'
p771
VEH
p772
sS'loutish'
p773
VL
sS'ucits'
p774
VY
sS'antiracism'
p775
VAE
p776
sS'gulags'
p777
VG
sS'altener'
p778
VAO
p779
sS'runnymede'
p780
VR
sS'dimokratia'
p781
VD
sS'msf'
p782
VM
sS'andr'
p783
VAE
p784
sS'tyres'
p785
VT
sS'tsarist'
p786
VT
sS'chocolatl'
p787
VCH
p788
sS'bides'
p789
VB
sS'retrospection'
p790
VR
sS'maximise'
p791
VM
sS'upgradable'
p792
VAH
p793
sS'ovine'
p794
VOW
p795
sS'schoolmasterish'
p796
VS
sS'marginalisation'
p797
VM
sS'emphasising'
p798
VEH
p799
sS'modernised'
p800
VM
sS'ibm'
p801
VIH
p802
sS'socialisation'
p803
VS
sS'lieneman'
p804
VL
sS'cabeza'
p805
VK
sS'bureaux'
p806
VB
sS'indolence'
p807
VIH
p808
sS'usability'
p809
VY
sS'solbes'
p810
VS
sS'gillnets'
p811
VG
sS'1980s'
p812
VAH
p813
sS'detaching'
p814
VD
sS'wordings'
p815
VW
sS'14a'
p816
VD
sS'franconian'
p817
VF
sS'litre'
p818
VL
sS'conurbation'
p819
VK
sS'grosset'
p820
VG
sS'scornfully'
p821
VS
sS'ndez'
p822
VN
sS'naivety'
p823
VN
sS'hawksbill'
p824
VHH
p825
sS'helpfulness'
p826
VHH
p827
sS'cecaf'
p828
VS
sS'strictness'
p829
VS
sS'atxalandabaso'
p830
VAE
p831
sS'liberalisation'
p832
VL
sS'neighbourliness'
p833
VN
sS'imbeni'
p834
VIH
p835
sS'motorway'
p836
VM
sS'subrogate'
p837
VS
sS'teratogenic'
p838
VT
sS'pilate'
p839
VP
sS'atat'
p840
VEY
p841
sS'forestier'
p842
VF
sS'deve'
p843
VD
sS'ss'
p844
VEH
p845
sS'sp'
p846
VS
sS'sv'
p847
VEH
p848
sS'yobs'
p849
VY
sS'sj'
p850
VSH
p851
sS'neighbourhoods'
p852
VN
sS'paternalist'
p853
VP
sS'irresolute'
p854
VIH
p855
sS'rumoured'
p856
VR
sS'characterisations'
p857
VK
sS'councillor'
p858
VK
sS'blacklists'
p859
VB
sS'maij'
p860
VM
sS'nol'
p861
VN
sS'applecart'
p862
VAE
p863
sS'recommenced'
p864
VR
sS'illogically'
p865
VIH
p866
sS'widescale'
p867
VW
sS'contravened'
p868
VK
sS'polyaromatic'
p869
VP
sS'nox'
p870
VN
sS'ssel'
p871
VS
sS'contravenes'
p872
VK
sS'maladministration'
p873
VM
sS'nos'
p874
VN
sS'hulten'
p875
VHH
p876
sS'gemelli'
p877
VJH
p878
sS'civilisation'
p879
VS
sS'finuoli'
p880
VF
sS'realise'
p881
VR
sS'hydrological'
p882
VHH
p883
sS'teaux'
p884
VT
sS'terr'
p885
VT
sS'caudillos'
p886
VK
sS'retarders'
p887
VR
sS'kkinen'
p888
VK
sS'tannock'
p889
VT
sS'communitising'
p890
VK
sS'ec'
p891
VEH
p892
sS'ostracised'
p893
VAA
p894
sS'ez'
p895
VEH
p896
sS'eu'
p897
VY
sS'ep'
p898
VEH
p899
sS'tisza'
p900
VT
sS'adduced'
p901
VAH
p902
sS'olendorf'
p903
VAA
p904
sS'racan'
p905
VR
sS'ugarten'
p906
VY
sS'ieke'
p907
VIY
p908
sS'nihilo'
p909
VN
sS'busybody'
p910
VB
sS'retrodisplacement'
p911
VR
sS'reformulation'
p912
VR
sS'inessential'
p913
VAY
p914
sS'phthalates'
p915
VF
sS'penalising'
p916
VP
sS'aznar'
p917
VAE
p918
sS'schnellhardt'
p919
VSH
p920
sS'undesirably'
p921
VAH
p922
sS'apologising'
p923
VAH
p924
sS'industrialised'
p925
VIH
p926
sS'invalidity'
p927
VIH
p928
sS'feedingstuffs'
p929
VF
sS'rapporteurs'
p930
VR
sS'reductionist'
p931
VR
sS'reclassifications'
p932
VR
sS'xx'
p933
VK
sS'wallonian'
p934
VW
sS'ctes'
p935
VEH
p936
sS'dramatised'
p937
VD
sS'modernise'
p938
VM
sS'reorganising'
p939
VR
sS'1c'
p940
VS
sS'immortalised'
p941
VIH
p942
sS'democratique'
p943
VD
sS'clamouring'
p944
VK
sS'asymmetric'
p945
VEY
p946
sS'pnv'
p947
VAE
p948
sS'imputations'
p949
VIH
p950
sS'gastroenteritis'
p951
VG
sS'interreg'
p952
VIH
p953
sS'optimise'
p954
VAA
p955
sS'grammes'
p956
VG
sS'modelled'
p957
VM
sS'eurosceptic'
p958
VY
sS'interservice'
p959
VIH
p960
sS'standardised'
p961
VS
sS'scandalised'
p962
VS
sS'eudor'
p963
VOY
p964
sS'watercourses'
p965
VW
sS'sahel'
p966
VS
sS'trojer'
p967
VT
sS'demotivation'
p968
VD
sS'seabirds'
p969
VS
sS'unowned'
p970
VY
sS'barzanti'
p971
VB
sS'karelia'
p972
VK
sS'wct'
p973
VW
sS'leinster'
p974
VL
sS'55th'
p975
VAH
p976
sS'algarve'
p977
VAE
p978
sS'carrilho'
p979
VK
sS'authorising'
p980
VAO
p981
sS'euromed'
p982
VY
sS'errez'
p983
VEH
p984
sS'renan'
p985
VR
sS'transnationality'
p986
VT
sS'bourlanges'
p987
VB
sS'incentivise'
p988
VIH
p989
sS'iniquitous'
p990
VIH
p991
sS'padanian'
p992
VP
sS'folketing'
p993
VF
sS'tarek'
p994
VT
sS'methodologically'
p995
VM
sS'ksila'
p996
VS
sS'rfler'
p997
VR
sS'obiols'
p998
VOW
p999
sS'colegislator'
p1000
VK
sS'antiracist'
p1001
VAE
p1002
sS'readmission'
p1003
VR
sS'rebalanced'
p1004
VR
sS'manoeuvre'
p1005
VM
sS'apulia'
p1006
VAE
p1007
sS'competitivity'
p1008
VK
sS'blace'
p1009
VB
sS'coherences'
p1010
VK
sS'godlike'
p1011
VG
sS'buttiglione'
p1012
VB
sS'gew'
p1013
VJH
p1014
sS'enumerations'
p1015
VAH
p1016
sS'remoter'
p1017
VR
sS'interregional'
p1018
VIH
p1019
sS'honours'
p1020
VAA
p1021
sS'sisyphus'
p1022
VS
sS'undemanding'
p1023
VAH
p1024
sS'hombach'
p1025
VHH
p1026
sS'segni'
p1027
VS
sS'cuxhaven'
p1028
VK
sS'diversities'
p1029
VD
sS'abano'
p1030
VAA
p1031
sS'cf'
p1032
VIY
p1033
sS'cordiale'
p1034
VK
sS'ence'
p1035
VEH
p1036
sS'jettons'
p1037
VJH
p1038
sS'malmstr'
p1039
VM
sS'obejct'
p1040
VAH
p1041
sS'guterres'
p1042
VG
sS'cavalese'
p1043
VK
sS'poena'
p1044
VP
sS'obfuscates'
p1045
VAA
p1046
sS'roure'
p1047
VR
sS'compliances'
p1048
VK
sS'harmonised'
p1049
VHH
p1050
sS'legale'
p1051
VL
sS'misinterpretations'
p1052
VM
sS'wallonia'
p1053
VW
sS'foisting'
p1054
VF
sS'minamata'
p1055
VM
sS'colours'
p1056
VK
sS'recognisable'
p1057
VR
sS'harmonises'
p1058
VHH
p1059
sS'recourses'
p1060
VR
sS'innovatively'
p1061
VIH
p1062
sS'conformism'
p1063
VK
sS'tacis'
p1064
VT
sS'tanio'
p1065
VT
sS'scrutinise'
p1066
VS
sS'militarised'
p1067
VM
sS'beguin'
p1068
VB
sS'marriageable'
p1069
VM
sS'prejudgements'
p1070
VP
sS'antisemite'
p1071
VAE
p1072
sS'cips'
p1073
VS
sS'jerrymandering'
p1074
VJH
p1075
sS'rivalled'
p1076
VR
sS'generalisation'
p1077
VJH
p1078
sS'shamefully'
p1079
VSH
p1080
sS'twix'
p1081
VT
sS'harbouring'
p1082
VHH
p1083
sS'roadworthiness'
p1084
VR
sS'promptness'
p1085
VP
sS'reworded'
p1086
VR
sS'delocalisation'
p1087
VD
sS'andalusians'
p1088
VAE
p1089
sS'millimetre'
p1090
VM
sS'practises'
p1091
VP
sS'korakas'
p1092
VK
sS'expediencies'
p1093
VIH
p1094
sS'cfsp'
p1095
VEH
p1096
sS'arta'
p1097
VAA
p1098
sS'sessional'
p1099
VS
sS'dadaist'
p1100
VD
sS'arte'
p1101
VAA
p1102
sS'dovetailing'
p1103
VD
sS'renewables'
p1104
VR
sS'spongiform'
p1105
VS
sS'6c'
p1106
VS
sS'derogation'
p1107
VD
sS'legislations'
p1108
VL
sS'paedophilia'
p1109
VP
sS'precariousness'
p1110
VP
sS'bmw'
p1111
VM
sS'specialised'
p1112
VS
sS'pretence'
p1113
VP
sS'eib'
p1114
VAY
p1115
sS'efterl'
p1116
VEH
p1117
sS'accessions'
p1118
VAH
p1119
sS'specialises'
p1120
VS
sS'europarl'
p1121
VY
sS'demilitarised'
p1122
VD
sS'stabilising'
p1123
VS
sS'caprine'
p1124
VK
sS'echternach'
p1125
VEH
p1126
sS'colonisation'
p1127
VK
sS'blak'
p1128
VB
sS'trentin'
p1129
VT
sS'quaestors'
p1130
VK
sS'litres'
p1131
VL
sS'clientelism'
p1132
VK
sS'turmes'
p1133
VT
sS'geostrategic'
p1134
VJH
p1135
sS'pau'
p1136
VP
sS'ultimum'
p1137
VAH
p1138
sS'reanimate'
p1139
VR
sS'enquiries'
p1140
VEH
p1141
sS'putin'
p1142
VP
sS'legitimises'
p1143
VL
sS'riis'
p1144
VR
sS'dogmatisers'
p1145
VD
sS'ronique'
p1146
VR
sS'despatched'
p1147
VD
sS'sahrawi'
p1148
VS
sS'uen'
p1149
VY
sS'ois'
p1150
VOY
p1151
sS'legitimised'
p1152
VL
sS'pures'
p1153
VP
sS'politicisation'
p1154
VP
sS'toadied'
p1155
VT
sS'biotopes'
p1156
VB
sS'nchez'
p1157
VN
sS'synthesises'
p1158
VS
sS'elles'
p1159
VEH
p1160
sS'taxifolia'
p1161
VT
sS'frontispiece'
p1162
VF
sS'rewording'
p1163
VR
sS'grappa'
p1164
VG
sS'renationalised'
p1165
VR
sS'gdp'
p1166
VJH
p1167
sS'anthropometric'
p1168
VAE
p1169
sS'comitology'
p1170
VK
sS'parez'
p1171
VP
sS'criminalise'
p1172
VK
sS'orthomixomicrovirus'
p1173
VAO
p1174
sS'fvo'
p1175
VF
sS'xxviiith'
p1176
VS
sS'euros'
p1177
VY
sS'preventatively'
p1178
VP
sS'favouring'
p1179
VF
sS'bowis'
p1180
VB
sS'legitimisation'
p1181
VL
sS'roissy'
p1182
VR
sS'countrywomen'
p1183
VK
sS'aeroplanes'
p1184
VEH
p1185
sS'culinaire'
p1186
VK
sS'offence'
p1187
VAH
p1188
sS'fallowing'
p1189
VF
sS'gra'
p1190
VG
sS'pse'
p1191
VS
sS'basest'
p1192
VB
sS'compartmentalisation'
p1193
VK
sS'legalised'
p1194
VL
sS'penalised'
p1195
VP
sS'directorates'
p1196
VD
sS'montesquieu'
p1197
VM
sS'institutionalisation'
p1198
VIH
p1199
sS'supernumeraries'
p1200
VS
sS'gratifyingly'
p1201
VG
sS'tajo'
p1202
VT
sS'fulfil'
p1203
VF
sS'putrefaction'
p1204
VP
sS'neutralised'
p1205
VN
sS'csfs'
p1206
VEH
p1207
sS'heartlands'
p1208
VHH
p1209
sS'cr'
p1210
VK
sS'complementarity'
p1211
VK
sS'competences'
p1212
VK
sS'dissociated'
p1213
VD
sS'centralised'
p1214
VS
sS'ddr'
p1215
VD
sS'defenceless'
p1216
VD
sS'unmovic'
p1217
VAH
p1218
sS'reorientated'
p1219
VR
sS'antipathetic'
p1220
VAE
p1221
sS'aglietta'
p1222
VAA
p1223
sS'angelilli'
p1224
VAA
p1225
sS'decentralise'
p1226
VD
sS'teleworking'
p1227
VT
sS'tdi'
p1228
VT
sS'ratifications'
p1229
VR
sS'valletta'
p1230
VV
sS'contrario'
p1231
VK
sS'carefulness'
p1232
VK
sS'pluralist'
p1233
VP
sS'forgetfulness'
p1234
VF
sS'rauf'
p1235
VR
sS'caulerpa'
p1236
VK
sS'turkistan'
p1237
VT
sS'diptych'
p1238
VD
sS'coincineration'
p1239
VK
sS'confederations'
p1240
VK
sS'acs'
p1241
VAE
p1242
sS'delimitation'
p1243
VD
sS'acp'
p1244
VAE
p1245
sS'albacete'
p1246
VAE
p1247
sS'guigou'
p1248
VG
sS'abattoir'
p1249
VAH
p1250
sS'garc'
p1251
VG
sS'derogating'
p1252
VD
sS'dipecho'
p1253
VD
sS'councillors'
p1254
VK
sS'dustbins'
p1255
VD
sS'stabilisation'
p1256
VS
sS'het'
p1257
VHH
p1258
sS'eulogises'
p1259
VY
sS'scrs'
p1260
VS
sS'decentralising'
p1261
VD
sS'endeavouring'
p1262
VEH
p1263
sS'loi'
p1264
VL
sS'namhong'
p1265
VN
sS'dislocates'
p1266
VD
sS'preachifying'
p1267
VP
sS'labelling'
p1268
VL
sS'practised'
p1269
VP
sS'discriminations'
p1270
VD
sS'oversteps'
p1271
VOW
p1272
sS'roseira'
p1273
VR
sS'ecemis'
p1274
VAH
p1275
sS'scorning'
p1276
VS
sS'censures'
p1277
VS
sS'conakry'
p1278
VK
sS'usted'
p1279
VAH
p1280
sS'universalist'
p1281
VY
sS'oostlander'
p1282
VUW
p1283
sS'300g'
p1284
VG
sS'buesa'
p1285
VB
sS'inflexibilities'
p1286
VIH
p1287
sS'organised'
p1288
VAO
p1289
sS'lvarez'
p1290
VL
sS'gonz'
p1291
VG
sS'subjugating'
p1292
VS
sS'twinnings'
p1293
VT
sS'schipol'
p1294
VS
sS'igc'
p1295
VAY
p1296
sS'stabilised'
p1297
VS
sS'poos'
p1298
VP
sS'otc'
p1299
VAO
p1300
sS'compounders'
p1301
VK
sS'deliveryman'
p1302
VD
sS'dishonour'
p1303
VD
sS'quelque'
p1304
VK
sS'a5'
p1305
VAE
p1306
sS'a4'
p1307
VAE
p1308
sS'recognise'
p1309
VR
sS'cermis'
p1310
VS
sS'redressed'
p1311
VR
sS'hieronymi'
p1312
VHH
p1313
sS'websites'
p1314
VW
sS'thors'
p1315
VDH
p1316
sS'opportunely'
p1317
VAA
p1318
sS'rezala'
p1319
VR
sS'coreper'
p1320
VK
sS'ivoire'
p1321
VIH
p1322
sS'sch'
p1323
VSH
p1324
sS'unrestrainable'
p1325
VAH
p1326
sS'levelling'
p1327
VL
sS'overexploiting'
p1328
VOW
p1329
sS'moratinos'
p1330
VM
sS'fiducia'
p1331
VF
sS'tain'
p1332
VT
sS'adana'
p1333
VAA
p1334
sS'1930s'
p1335
VAH
p1336
sS'driftnets'
p1337
VD
sS'tranquillity'
p1338
VT
sS'homepage'
p1339
VHH
p1340
sS'endogenous'
p1341
VEH
p1342
sS'subsidiarity'
p1343
VS
sS'weshalb'
p1344
VW
sS'apologised'
p1345
VAH
p1346
sS'regularise'
p1347
VR
sS'wavers'
p1348
VW
sS'icao'
p1349
VIY
p1350
sS'acidifying'
p1351
VAH
p1352
sS'alleanza'
p1353
VAA
p1354
sS'offal'
p1355
VAH
p1356
sS'24th'
p1357
VAH
p1358
sS'yrynen'
p1359
VY
sS'generalised'
p1360
VJH
p1361
sS'pigmeat'
p1362
VP
sS'katiforis'
p1363
VK
sS'17th'
p1364
VAH
p1365
sS'marvellous'
p1366
VM
sS'ageing'
p1367
VAH
p1368
sS'ge'
p1369
VJH
p1370
sS'rengie'
p1371
VR
sS'legalisation'
p1372
VL
sS'20th'
p1373
VAH
p1374
sS'overstretched'
p1375
VOW
p1376
sS'brucellosis'
p1377
VB
sS'communitarisation'
p1378
VK
sS'husbanded'
p1379
VHH
p1380
sS'honourably'
p1381
VAA
p1382
sS'denouncement'
p1383
VD
sS'reactivation'
p1384
VR
sS'timescales'
p1385
VT
sS'honourable'
p1386
VAA
p1387
sS'rato'
p1388
VR
sS'titley'
p1389
VT
sS'provan'
p1390
VP
sS'billposters'
p1391
VB
sS'teu'
p1392
VT
sS'paralyse'
p1393
VP
sS'theonas'
p1394
VTH
p1395
sS'ohne'
p1396
VOW
p1397
sS'sud'
p1398
VS
sS'sua'
p1399
VS
sS'abh'
p1400
VAE
p1401
sS'floodtide'
p1402
VF
sS'correcta'
p1403
VK
sS'abm'
p1404
VAE
p1405
sS'carpegna'
p1406
VK
sS'reziproken'
p1407
VR
sS'passiveness'
p1408
VP
sS'vall'
p1409
VV
sS'rgensen'
p1410
VR
sS'seiten'
p1411
VS
sS'favourably'
p1412
VF
sS'behaviour'
p1413
VB
sS'prescriptive'
p1414
VP
sS'fratricidal'
p1415
VF
sS'encephalopathies'
p1416
VEH
p1417
sS'emancipatory'
p1418
VAH
p1419
sS'eurodac'
p1420
VY
sS'osce'
p1421
VAO
p1422
sS'wogau'
p1423
VW
sS'50s'
p1424
VAH
p1425
sS'resourced'
p1426
VR
sS'hilfen'
p1427
VHH
p1428
sS'euratom'
p1429
VY
sS'rugovo'
p1430
VR
sS'utilisation'
p1431
VY
sS'collation'
p1432
VK
sS'2000s'
p1433
VAH
p1434
sS'vit'
p1435
VV
sS'tesauro'
p1436
VT
sS'executable'
p1437
VEH
p1438
sS'intersectoral'
p1439
VIH
p1440
sS'wijkman'
p1441
VW
sS'oecd'
p1442
VOW
p1443
sS'budgetisation'
p1444
VB
sS'doubtlessly'
p1445
VD
sS'voggenhuber'
p1446
VV
sS'underprivileged'
p1447
VAH
p1448
sS'demining'
p1449
VD
sS'auvergne'
p1450
VOW
p1451
sS'uncomprehending'
p1452
VAH
p1453
sS'situ'
p1454
VS
sS'acheneau'
p1455
VAH
p1456
sS'cofinanced'
p1457
VK
sS'aspirational'
p1458
VAE
p1459
sS'kla'
p1460
VK
sS'subsonic'
p1461
VS
sS'klm'
p1462
VK
sS'sociale'
p1463
VS
sS'revitalising'
p1464
VR
sS'g7'
p1465
VAH
p1466
sS'subsidisation'
p1467
VS
sS'kitzsteinhorn'
p1468
VK
sS'infectivity'
p1469
VIH
p1470
sS'dubiously'
p1471
VD
sS'publicise'
p1472
VP
sS'eaggf'
p1473
VIY
p1474
sS'casaca'
p1475
VK
sS'csf'
p1476
VEH
p1477
sS'unsystematically'
p1478
VAH
p1479
sS'refoulement'
p1480
VR
sS'csu'
p1481
VS
sS'lancker'
p1482
VL
sS'ssen'
p1483
VS
sS'rebalance'
p1484
VR
sS'fp'
p1485
VF
sS'fr'
p1486
VF
sS'inconceivably'
p1487
VIH
p1488
sS'limpopo'
p1489
VL
sS'ff'
p1490
VF
sS'pharmaceutiques'
p1491
VF
sS'conditio'
p1492
VK
sS'misnamed'
p1493
VM
sS'remodelled'
p1494
VR
sS'neuwerk'
p1495
VN
sS'misanthropic'
p1496
VM
sS'essere'
p1497
VEH
p1498
sS'unreservedly'
p1499
VAH
p1500
sS'lepos'
p1501
VL
sS'skilful'
p1502
VS
sS'isd'
p1503
VAY
p1504
sS'sebasti'
p1505
VS
sS'itl'
p1506
VIH
p1507
sS'traceability'
p1508
VT
sS'khmelnitsky'
p1509
VK
sS'blokland'
p1510
VB
sS'uctis'
p1511
VAH
p1512
sS'ruijten'
p1513
VR
sS'roadworthy'
p1514
VR
sS'ffh'
p1515
VF
sS'telluric'
p1516
VT
sS'factortame'
p1517
VF
sS'flimsier'
p1518
VF
sS'menceau'
p1519
VM
sS'labours'
p1520
VL
sS'unpolluted'
p1521
VAH
p1522
sS'mainstreamed'
p1523
VM
sS'secondment'
p1524
VS
sS'bendit'
p1525
VB
sS'straitjacketed'
p1526
VS
sS'wiliness'
p1527
VW
sS'forbear'
p1528
VF
sS'gmos'
p1529
VM
sS'reordered'
p1530
VR
sS'ceo'
p1531
VS
sS'cen'
p1532
VS
sS'cem'
p1533
VS
sS'impostures'
p1534
VIH
p1535
sS'addenda'
p1536
VAH
p1537
sS'huhne'
p1538
VHH
p1539
sS'ortuondo'
p1540
VAO
p1541
sS'americanisation'
p1542
VAH
p1543
sS'cercas'
p1544
VS
sS'2a'
p1545
VIY
p1546
sS'authorisation'
p1547
VAO
p1548
sS'vatanen'
p1549
VV
sS'wasn'
p1550
VW
sS'exclusiveness'
p1551
VIH
p1552
sS'organises'
p1553
VAO
p1554
sS'366a'
p1555
VD
sS'criminalisation'
p1556
VK
sS'synchronised'
p1557
VS
sS'todo'
p1558
VT
sS'shamefaced'
p1559
VSH
p1560
sS'meijer'
p1561
VM
sS'realising'
p1562
VR
sS'jesuitical'
p1563
VJH
p1564
sS'abdications'
p1565
VAE
p1566
sS'doddle'
p1567
VD
sS'reorganised'
p1568
VR
sS'leavers'
p1569
VL
sS'wadden'
p1570
VW
sS'brovina'
p1571
VB
sS'beurre'
p1572
VB
sS'stigmatises'
p1573
VS
sS'tesiegel'
p1574
VT
sS'housebound'
p1575
VHH
p1576
sS'organising'
p1577
VAO
p1578
sS'ispa'
p1579
VAY
p1580
sS'baringdorf'
p1581
VB
sS'lavarra'
p1582
VL
sS'oligarchies'
p1583
VAA
p1584
sS'oisin'
p1585
VOY
p1586
sS'marfil'
p1587
VM
sS'ruination'
p1588
VR
sS'krarup'
p1589
VK
sS'shoah'
p1590
VSH
p1591
sS'responsibilisation'
p1592
VR
sS'scandalously'
p1593
VS
sS'rhinotracheitis'
p1594
VR
sS'xenophobe'
p1595
VZ
sS'harbours'
p1596
VHH
p1597
sS'symbolised'
p1598
VS
sS'avec'
p1599
VAA
p1600
sS'lagendijk'
p1601
VL
sS'symbolises'
p1602
VS
sS'forevermore'
p1603
VF
sS'fruitfully'
p1604
VF
sS'overcautious'
p1605
VOW
p1606
sS'subsidise'
p1607
VS
sS'contre'
p1608
VK
sS'uncultured'
p1609
VAH
p1610
sS'mudflat'
p1611
VM
sS'geremek'
p1612
VJH
p1613
sS'standardising'
p1614
VS
sS'zimeray'
p1615
VZ
sS'refilling'
p1616
VR
sS'cosv'
p1617
VK
sS'submissively'
p1618
VS
sS'aan'
p1619
VAA
p1620
sS'dans'
p1621
VD
sS'hoti'
p1622
VHH
p1623
sS'reorganisations'
p1624
VR
sS'wastage'
p1625
VW
sS'galit'
p1626
VG
sS'pluri'
p1627
VP
sS'passant'
p1628
VP
sS'prefigure'
p1629
VP
sS'homeworking'
p1630
VHH
p1631
sS'awoken'
p1632
VAH
p1633
sS'reorganisation'
p1634
VR
sS'larcher'
p1635
VL
sS'kartellamt'
p1636
VK
sS'imf'
p1637
VIH
p1638
sS'rechar'
p1639
VR
sS'bovines'
p1640
VB
sS'parece'
p1641
VP
sS'k2'
p1642
VK
sS'cfp'
p1643
VEH
p1644
sS'instatement'
p1645
VIH
p1646
sS'efa'
p1647
VEH
p1648
sS'herri'
p1649
VHH
p1650
sS'efe'
p1651
VIY
p1652
sS'hotchpotch'
p1653
VHH
p1654
sS'corus'
p1655
VK
sS'diversed'
p1656
VD
sS'kratsa'
p1657
VK
sS'privatised'
p1658
VP
sS'physico'
p1659
VF
sS'ludford'
p1660
VL
sS'kg'
p1661
VG
sS'focussing'
p1662
VF
sS'penalisation'
p1663
VP
sS'km'
p1664
VK
sS'ltcm'
p1665
VL
sS'elucidating'
p1666
VAH
p1667
sS'retardants'
p1668
VR
sS'morillon'
p1669
VM
sS'expedients'
p1670
VIH
p1671
sS'vilamoura'
p1672
VV
sS'stepwise'
p1673
VS
sS'ecsc'
p1674
VEH
p1675
sS'betokens'
p1676
VB
sS'criticising'
p1677
VK
sS'trialogue'
p1678
VT
sS'hiv'
p1679
VHH
p1680
sS'ingushetia'
p1681
VIH
p1682
sS'evregenis'
p1683
VEH
p1684
sS'harwich'
p1685
VHH
p1686
sS'reorganise'
p1687
VR
sS'ceecs'
p1688
VS
sS'unua'
p1689
VAH
p1690
sS'afsj'
p1691
VAE
p1692
sS'rensen'
p1693
VR
sS'sustainably'
p1694
VS
sS'overburdening'
p1695
VOW
p1696
sS'irresolvable'
p1697
VIH
p1698
sS'carlotti'
p1699
VK
sS'fyrom'
p1700
VF
sS'flexibilisation'
p1701
VF
sS'laan'
p1702
VL
sS'hexavalent'
p1703
VHH
p1704
sS'bedingungen'
p1705
VB
sS'cherrypick'
p1706
VCH
p1707
sS'quecedo'
p1708
VK
sS'eurosceptics'
p1709
VY
sS'pvc'
p1710
VK
sS'conjuncture'
p1711
VK
sS'sem'
p1712
VS
sS'giorgos'
p1713
VJH
p1714
sS'sek'
p1715
VS
sS'insidiously'
p1716
VIH
p1717
sS'unacknowledged'
p1718
VAH
p1719
sS'timeworn'
p1720
VT
sS'backhandedness'
p1721
VB
sS'fundability'
p1722
VF
sS'rachidi'
p1723
VR
sS'speediness'
p1724
VS
sS'morgantini'
p1725
VM
sS'baltas'
p1726
VB
sS'democratisation'
p1727
VD
sS'misdemeanours'
p1728
VM
sS'hecke'
p1729
VHH
p1730
sS'rightholders'
p1731
VR
sS'pedagogic'
p1732
VP
sS'randzio'
p1733
VR
sS'tropospheric'
p1734
VT
sS'gmo'
p1735
VM
sS'windedness'
p1736
VW
sS'xenophobes'
p1737
VZ
sS'inquisitorial'
p1738
VIH
p1739
sS'intergovernmentalisation'
p1740
VIH
p1741
sS'busquin'
p1742
VB
sS'lacaci'
p1743
VL
sS'nikitin'
p1744
VN
sS'behoves'
p1745
VB
sS'birdal'
p1746
VB
sS'retable'
p1747
VR
sS'tauern'
p1748
VT
sS'mg'
p1749
VEH
p1750
sS'viout'
p1751
VV
sS'subsidised'
p1752
VS
sS'olle'
p1753
VAA
p1754
sS'furanes'
p1755
VF
sS'fibres'
p1756
VF
sS'revolutionising'
p1757
VR
sS'publicising'
p1758
VP
sS'pr'
p1759
VP
sS'pt'
p1760
VEY
p1761
sS'glavany'
p1762
VG
sS'unavowed'
p1763
VAH
p1764
sS'requisitioning'
p1765
VR
sS'brushstrokes'
p1766
VB
sS'frassoni'
p1767
VF
sS'cornillet'
p1768
VK
sS'tindouf'
p1769
VT
sS'favelas'
p1770
VF
sS'1950s'
p1771
VAH
p1772
sS'ultraliberal'
p1773
VAH
p1774
sS'elst'
p1775
VEH
p1776
sS'schori'
p1777
VS
sS'oberbayern'
p1778
VAA
p1779
sS'raouf'
p1780
VR
sS'mla'
p1781
VM
sS'laxness'
p1782
VL
sS'volksunie'
p1783
VV
sS'iucn'
p1784
VIY
p1785
sS'fense'
p1786
VF
sS'governability'
p1787
VG
sS'slobo'
p1788
VS
sS'mpla'
p1789
VM
sS'elucidation'
p1790
VAH
p1791
sS'marginalise'
p1792
VM
sS'rationalising'
p1793
VR
sS'dg1'
p1794
VD
sS'lacklustre'
p1795
VL
sS'welshman'
p1796
VW
sS'lvaro'
p1797
VL
sS'quadras'
p1798
VK
sS'centralisation'
p1799
VS
sS'hushkits'
p1800
VHH
p1801
sS'constitutionalisation'
p1802
VK
sS'thoughtlessly'
p1803
VTH
p1804
sS'sightedness'
p1805
VS
sS'rambouillet'
p1806
VR
sS'scientifiques'
p1807
VS
sS'remits'
p1808
VR
sS'liberalised'
p1809
VL
sS'liba'
p1810
VL
sS'marset'
p1811
VM
sS'padania'
p1812
VP
sS'fulfilment'
p1813
VF
sS'dgs'
p1814
VJH
p1815
sS'haarder'
p1816
VHH
p1817
sS'gsp'
p1818
VZ
sS'prioritised'
p1819
VP
sS'globalised'
p1820
VG
sS'forestation'
p1821
VF
sS'prioritises'
p1822
VP
sS'mobilising'
p1823
VM
sS'scaremongering'
p1824
VS
sS'gsm'
p1825
VJH
p1826
sS'fraisse'
p1827
VF
sS'feira'
p1828
VF
sS'typologies'
p1829
VT
sS'transboundary'
p1830
VT
sS'overflown'
p1831
VOW
p1832
sS'alpes'
p1833
VAH
p1834
sS'ngigkeit'
p1835
VG
sS'nestl'
p1836
VN
sS'sheepmeat'
p1837
VSH
p1838
sS'dures'
p1839
VD
sS'calibre'
p1840
VK
sS'3and'
p1841
VAA
p1842
sS'47th'
p1843
VAH
p1844
sS'coastguards'
p1845
VK
sS'erikas'
p1846
VEH
p1847
sS'hauliers'
p1848
VHH
p1849
sS'characterise'
p1850
VK
sS'aggregation'
p1851
VAE
p1852
sS'rling'
p1853
VR
sS'monika'
p1854
VM
sS'barricading'
p1855
VB
sS'cadou'
p1856
VK
sS'timetabling'
p1857
VT
sS'microcredit'
p1858
VM
sS'aridity'
p1859
VER
p1860
sS'harmonising'
p1861
VHH
p1862
sS'abattoirs'
p1863
VAH
p1864
sS'eurojus'
p1865
VY
sS'pirker'
p1866
VP
sS'eea'
p1867
VIY
p1868
sS'summarise'
p1869
VS
sS'eec'
p1870
VIY
p1871
sS'uncompromised'
p1872
VAH
p1873
sS'wombs'
p1874
VW
sS'urba'
p1875
VER
p1876
sS'30s'
p1877
VAH
p1878
sS'metres'
p1879
VM
sS'representativeness'
p1880
VR
sS'b5'
p1881
VB
sS'hectolitres'
p1882
VHH
p1883
sS'b1'
p1884
VB
sS'b2'
p1885
VB
sS'publica'
p1886
VP
sS'30a'
p1887
VD
sS'suanzes'
p1888
VS
sS'manisco'
p1889
VM
sS'begrudges'
p1890
VB
sS'tampere'
p1891
VT
sS'attac'
p1892
VEY
p1893
sS'morbihan'
p1894
VM
sS'proc'
p1895
VP
sS'dejas'
p1896
VD
sS'faslane'
p1897
VF
sS'degassing'
p1898
VD
sS'icrc'
p1899
VAY
p1900
sS'bn'
p1901
VB
sS'neutre'
p1902
VN
sS'interpretative'
p1903
VIH
p1904
sS'employability'
p1905
VEH
p1906
sS'br'
p1907
VB
sS'analysing'
p1908
VAE
p1909
sS'minurso'
p1910
VM
sS'uncompromisingly'
p1911
VAH
p1912
sS'megalomaniacs'
p1913
VM
sS'esterno'
p1914
VEH
p1915
sS'sukarnoputri'
p1916
VS
sS'cossutta'
p1917
VK
sS'wherefores'
p1918
VHH
p1919
sS'trittin'
p1920
VT
sS'whiteboard'
p1921
VHH
p1922
sS'irrigates'
p1923
VIH
p1924
sS'repulsion'
p1925
VR
sS'unsorted'
p1926
VAH
p1927
sS'nder'
p1928
VN
sS'idc'
p1929
VAY
p1930
sS'akkuyu'
p1931
VAE
p1932
sS'56th'
p1933
VAH
p1934
sS'elorza'
p1935
VEH
p1936
sS'favourable'
p1937
VF
sS'legalise'
p1938
VL
sS'hudghton'
p1939
VHH
p1940
sS'papoutsis'
p1941
VP
sS'derogations'
p1942
VD
sS'lothringen'
p1943
VL
sS'plantin'
p1944
VP
sS'realisation'
p1945
VR
sS'visae'
p1946
VV
sS'vigour'
p1947
VV
sS'maaten'
p1948
VM
sS'waffen'
p1949
VW
sS'lldc'
p1950
VS
sS'falun'
p1951
VF
sS'abovementioned'
p1952
VAH
p1953
sS'quetzalcoatl'
p1954
VK
sS'bazin'
p1955
VB
sS'pangolin'
p1956
VP
sS'holidaymakers'
p1957
VHH
p1958
sS'bluefin'
p1959
VB
sS'swiebel'
p1960
VS
sS'devolving'
p1961
VD
sS'elnosa'
p1962
VEH
p1963
sS'monnet'
p1964
VM
sS'jonckheer'
p1965
VHH
p1966
sS'subjectively'
p1967
VS
sS'governo'
p1968
VG
sS'maximised'
p1969
VM
sS'svend'
p1970
VS
sS'hrkop'
p1971
VHH
p1972
sS'sixthly'
p1973
VS
sS'posidonia'
p1974
VP
sS'agronomic'
p1975
VAH
p1976
sS'cis'
p1977
VS
sS'erkki'
p1978
VER
p1979
sS'feasibilities'
p1980
VF
sS'cip'
p1981
VS
sS'nsch'
p1982
VN
sS'maximises'
p1983
VM
sS'uk'
p1984
VAH
p1985
sS'sapard'
p1986
VS
sS'rostock'
p1987
VR
sS'polarised'
p1988
VP
sS'escb'
p1989
VEH
p1990
sS'euroworks'
p1991
VY
sS'scrapie'
p1992
VS
sS'kn'
p1993
VK
sS'weggen'
p1994
VW
sS'formalise'
p1995
VF
sS'nationalise'
p1996
VN
sS'bureaucratise'
p1997
VB
sS'exup'
p1998
VEH
p1999
sS'codex'
p2000
VK
sS'samuli'
p2001
VS
sS'individualisation'
p2002
VIH
p2003
sS'multipliers'
p2004
VM
sS'eldr'
p2005
VEH
p2006
sS'priori'
p2007
VP
sS'computerised'
p2008
VK
sS'voinet'
p2009
VV
sS'organise'
p2010
VAO
p2011
sS'eurosystem'
p2012
VY
sS'pintassilgo'
p2013
VP
sS'berthing'
p2014
VB
sS'finalised'
p2015
VF
sS'korhola'
p2016
VK
sS'practicalities'
p2017
VP
sS'weitergef'
p2018
VV
sS'galvanised'
p2019
VG
sS'suchil'
p2020
VS
sS'overladen'
p2021
VOW
p2022
sS'digressive'
p2023
VD
sS'overlong'
p2024
VOW
p2025
sS'holey'
p2026
VHH
p2027
sS'flautre'
p2028
VF
sS'svc'
p2029
VS
sS'superstate'
p2030
VS
sS'utilised'
p2031
VY
sS'neighbouring'
p2032
VN
sS'superannuated'
p2033
VS
sS'unef'
p2034
VUW
p2035
sS'communautaire'
p2036
VK
sS'sclope'
p2037
VS
sS'edf'
p2038
VEH
p2039
sS'gr'
p2040
VG
sS'edd'
p2041
VEH
p2042
sS'denktash'
p2043
VD
sS'rivne'
p2044
VR
sS'cofinance'
p2045
VK
sS'minore'
p2046
VM
sS'conditionalities'
p2047
VK
sS'legitimising'
p2048
VL
sS'eurofederalist'
p2049
VY
sS'mollifying'
p2050
VM
sS'renunciations'
p2051
VR
sS'blindingly'
p2052
VB
sS'vetch'
p2053
VV
sS'plcs'
p2054
VP
sS'demilitarising'
p2055
VD
sS'onesta'
p2056
VAH
p2057
sS'stregrennan'
p2058
VS
sS'enslaves'
p2059
VEH
p2060
sS'spinelessness'
p2061
VS
sS'neighbourly'
p2062
VN
sS'revitalise'
p2063
VR
sS'vitorino'
p2064
VV
sS'g8'
p2065
VAH
p2066
sS'mitrovica'
p2067
VM
sS'traumatised'
p2068
VT
sS'wipo'
p2069
VW
sS'ruinously'
p2070
VR
sS'farrago'
p2071
VF
sS'insuperable'
p2072
VIH
p2073
sS'brovinas'
p2074
VB
sS'speroni'
p2075
VS
sS'reappearing'
p2076
VR
sS'kinsmen'
p2077
VK
sS'depositories'
p2078
VD
sS'flechard'
p2079
VF
sS'bleiben'
p2080
VB
sS'materialised'
p2081
VM
sS'ocha'
p2082
VAA
p2083
sS'cfi'
p2084
VIY
p2085
sS'mortalities'
p2086
VM
sS'raninsy'
p2087
VR
sS'cofinancing'
p2088
VK
sS'croo'
p2089
VK
sS'barnier'
p2090
VB
sS'zu'
p2091
VZ
sS'kouchner'
p2092
VK
sS'clich'
p2093
VK
sS'valdivielso'
p2094
VV
sS'infrastrucutres'
p2095
VIH
p2096
sS'ukip'
p2097
VY
sS'calorific'
p2098
VK
sS'chickpeas'
p2099
VCH
p2100
sS'coccidiostats'
p2101
VK
sS'kreissl'
p2102
VK
sS'stedt'
p2103
VS
sS'3b'
p2104
VB
sS'pristina'
p2105
VP
sS'implementable'
p2106
VIH
p2107
sS'flavourings'
p2108
VF
sS'scepticism'
p2109
VS
sS'transhipment'
p2110
VT
sS'50th'
p2111
VAH
p2112
sS'herritarrok'
p2113
VHH
p2114
sS'tajani'
p2115
VT
sS'phonograms'
p2116
VF
sS'ambit'
p2117
VAE
p2118
sS'wiebenga'
p2119
VW
sS'lipietz'
p2120
VL
sS'haulier'
p2121
VHH
p2122
sS'lez'
p2123
VL
sS'commendably'
p2124
VK
sS'proscribing'
p2125
VP
sS'lentejas'
p2126
VL
sS'metre'
p2127
VM
sS'harmonisation'
p2128
VHH
p2129
sS'unestablished'
p2130
VAH
p2131
sS'ouvri'
p2132
VUW
p2133
sS'flavour'
p2134
VF
sS'victimised'
p2135
VV
sS'leucosis'
p2136
VL
sS'taxman'
p2137
VT
sS'backhanders'
p2138
VB
sS'138a'
p2139
VD
sS'stenmarck'
p2140
VS
sS'michiel'
p2141
VM
sS'kurti'
p2142
VK
sS'apm'
p2143
VAE
p2144
sS'inhumanities'
p2145
VIH
p2146
sS'consignments'
p2147
VK
sS'usd'
p2148
VAH
p2149
sS'feo'
p2150
VF
sS'mobilisation'
p2151
VM
sS'extractive'
p2152
VIH
p2153
sS'congratulates'
p2154
VK
sS'sceptics'
p2155
VS
sS'piqu'
p2156
VP
sS'eutrophication'
p2157
VY
sS'assessable'
p2158
VAH
p2159
sS'nassauer'
p2160
VN
sS'contravening'
p2161
VK
sS'iii'
p2162
VIY
p2163
sS'immuration'
p2164
VIH
p2165
sS'lannoye'
p2166
VL
sS'unrivalled'
p2167
VAH
p2168
sS'entreprises'
p2169
VAA
p2170
sS'fulfils'
p2171
VF
sS'transmissible'
p2172
VT
sS'alia'
p2173
VAA
p2174
sS'moluccans'
p2175
VM
sS'votre'
p2176
VV
sS'exonerations'
p2177
VIH
p2178
sS'sinti'
p2179
VS
sS'vireaid'
p2180
VV
sS'bonemeal'
p2181
VB
sS'prioritise'
p2182
VP
sS'mealtimes'
p2183
VM
sS'pretexts'
p2184
VP
sS'marginalising'
p2185
VM
sS'optimised'
p2186
VAA
p2187
sS'summery'
p2188
VS
sS'parlous'
p2189
VP
sS'dimitrakopoulos'
p2190
VD
sS'herzogenrath'
p2191
VHH
p2192
sS'timetabled'
p2193
VT
sS'timeframes'
p2194
VT
sS'verheugen'
p2195
VV
sS'tacs'
p2196
VT
sS'reinstallation'
p2197
VR
sS'dockyards'
p2198
VD
sS'javette'
p2199
VZH
p2200
sS'marpol'
p2201
VM
sS'glasshouses'
p2202
VG
sS'npt'
p2203
VEH
p2204
sS'ultraliberalism'
p2205
VAH
p2206
sS'kindermann'
p2207
VK
sS'sidelong'
p2208
VS
sS'adjectival'
p2209
VAH
p2210
sS'b7'
p2211
VB
sS'hydrogeological'
p2212
VHH
p2213
sS'convenor'
p2214
VK
sS'favourites'
p2215
VF
sS'bipartite'
p2216
VB
sS'politicised'
p2217
VP
sS'europeanised'
p2218
VY
sS'saramago'
p2219
VS
sS'savoyard'
p2220
VS
sS'compostela'
p2221
VK
sS'offences'
p2222
VAH
p2223
sS'thyself'
p2224
VTH
p2225
sS'hrad'
p2226
VHH
p2227
sS'finalising'
p2228
VF
sS'll'
p2229
VL
sS'equalise'
p2230
VIY
p2231
sS'sinecure'
p2232
VS
sS'puerta'
p2233
VP
sS'fitto'
p2234
VF
sS'eieck'
p2235
VAY
p2236
sS'communitised'
p2237
VK
sS'eur'
p2238
VER
p2239
sS'unacceptability'
p2240
VAH
p2241
sS'emphasised'
p2242
VEH
p2243
sS'spelt'
p2244
VS
sS'aquacultural'
p2245
VAE
p2246
sS'emphasises'
p2247
VEH
p2248
sS'stabilise'
p2249
VS
sS'codetermination'
p2250
VK
sS'boetticher'
p2251
VB
sS'kilometres'
p2252
VK
sS'krehl'
p2253
VK
sS'expels'
p2254
VIH
p2255
sS'avocat'
p2256
VAE
p2257
sS'renationalise'
p2258
VR
sS'dafydd'
p2259
VD
sS'globalphobes'
p2260
VG
sS'sandb'
p2261
VS
sS'despots'
p2262
VD
sS'baulk'
p2263
VB
sS'outworking'
p2264
VAW
p2265
sS'tente'
p2266
VT
sS'casuistry'
p2267
VK
sS'sion'
p2268
VS
sS'gargani'
p2269
VG
sS'programmes'
p2270
VP
sS'ecofin'
p2271
VIH
p2272
sS'saviours'
p2273
VS
sS'scrapies'
p2274
VS
sS'multiannual'
p2275
VM
sS'liberalising'
p2276
VL
sS'posteriori'
p2277
VP
sS'favours'
p2278
VF
sS'siena'
p2279
VS
sS'cyanogen'
p2280
VS
sS'standardisation'
p2281
VS
sS'ece'
p2282
VEH
p2283
sS'ecb'
p2284
VEH
p2285
sS'piecyk'
p2286
VP
sS'undp'
p2287
VAH
p2288
sS'ecu'
p2289
VEH
p2290
sS'symbolise'
p2291
VS
sS'alchemists'
p2292
VAE
p2293
sS'zimmerling'
p2294
VZ
sS'supranationally'
p2295
VS
sS'libertarianism'
p2296
VL
sS'klagenfurt'
p2297
VK
sS'interinstitutional'
p2298
VIH
p2299
sS'externalisation'
p2300
VIH
p2301
sS'prioritisation'
p2302
VP
sS'modernising'
p2303
VM
sS'thessaloniki'
p2304
VTH
p2305
sS'clamour'
p2306
VK
sS'fertiliser'
p2307
VF
sS'maccormick'
p2308
VM
sS'savour'
p2309
VS
sS'emas'
p2310
VEH
p2311
sS'echr'
p2312
VEH
p2313
sS'demoralised'
p2314
VD
sS'ponderously'
p2315
VP
sS'unabating'
p2316
VAH
p2317
sS'lom'
p2318
VL
sS'jarzembowski'
p2319
VJH
p2320
sS'macrofinancial'
p2321
VM
sS'itchen'
p2322
VIH
p2323
sS'spillages'
p2324
VS
sS'joaqu'
p2325
VJH
p2326
sS'blinkered'
p2327
VB
sS'peijs'
p2328
VP
sS'pronk'
p2329
VP
sS'papayannakis'
p2330
VP
sS'anaemia'
p2331
VAE
p2332
sS'aquavit'
p2333
VAH
p2334
sS'moluccas'
p2335
VM
sS'masochists'
p2336
VM
sS'inuits'
p2337
VIH
p2338
sS'postgraduate'
p2339
VP
sS'apologise'
p2340
VAH
p2341
sS'folias'
p2342
VF
sS'udb'
p2343
VAH
p2344
sS'pradier'
p2345
VP
sS'inestimable'
p2346
VIH
p2347
sS'wppt'
p2348
VW
sS'incongruities'
p2349
VIH
p2350
sS'150g'
p2351
VG
sS'labourers'
p2352
VL
sS'popularised'
p2353
VP
sS'ber'
p2354
VB
sS'duisenberg'
p2355
VD
sS'berthu'
p2356
VB
sS'labouring'
p2357
VL
sS'arousa'
p2358
VER
p2359
sS'duping'
p2360
VD
sS'faim'
p2361
VF
sS'capitulating'
p2362
VK
sS'propuesta'
p2363
VP
sS'multipartite'
p2364
VM
sS'vlaamsblok'
p2365
VV
sS'recantations'
p2366
VR
sS'pretentiously'
p2367
VP
sS'iopcf'
p2368
VAY
p2369
sS'karamanou'
p2370
VK
sS'coresponsibility'
p2371
VK
sS'familiarise'
p2372
VF
sS'multifunctionality'
p2373
VM
sS'relativises'
p2374
VR
sS'bronislaw'
p2375
VB
sS'flagellation'
p2376
VF
sS'energise'
p2377
VEH
p2378
sS'formers'
p2379
VF
sS'instil'
p2380
VIH
p2381
sS'lutte'
p2382
VL
sS'haiders'
p2383
VHH
p2384
sS'salafranca'
p2385
VS
sS'seguro'
p2386
VS
sS'reconcilable'
p2387
VR
sS'bombastically'
p2388
VB
sS'noire'
p2389
VN
sS'underpins'
p2390
VAH
p2391
sS'sceptical'
p2392
VS
sS'regionality'
p2393
VR
sS'authorisations'
p2394
VAO
p2395
sS'succour'
p2396
VS
sS'kargil'
p2397
VK
sS'juristic'
p2398
VJH
p2399
sS'ngl'
p2400
VEH
p2401
sS'xviiith'
p2402
VK
sS'noiz'
p2403
VN
sS'vlaams'
p2404
VV
sS'sensitised'
p2405
VS
sS'minimising'
p2406
VM
sS'destabilisation'
p2407
VD
sS'postulated'
p2408
VP
sS'democratising'
p2409
VD
sS'renationalisation'
p2410
VR
sS'mga'
p2411
VEH
p2412
sS'tributyl'
p2413
VT
sS'tbt'
p2414
VT
sS'decentralisation'
p2415
VD
sS'regionalists'
p2416
VR
sS'ultraperipheral'
p2417
VAH
p2418
sS'unprejudiced'
p2419
VAH
p2420
sS'conglomerations'
p2421
VK
sS'exportation'
p2422
VEH
p2423
sS'transposition'
p2424
VT
sS'somport'
p2425
VS
sS'wilhelmshaven'
p2426
VW
sS'categorised'
p2427
VK
sS'gbp'
p2428
VB
sS'graa'
p2429
VG
sS'ohim'
p2430
VOW
p2431
sS'suominen'
p2432
VS
sS'irrefutably'
p2433
VIH
p2434
sS'monocultures'
p2435
VM
sS'langenhagen'
p2436
VL
sS'hotting'
p2437
VHH
p2438
sS'btf'
p2439
VB
sS'mercifulness'
p2440
VM
sS'despoiled'
p2441
VD
sS'shepherdstown'
p2442
VSH
p2443
sS'bedevilled'
p2444
VB
sS'kalamanov'
p2445
VK
sS'diese'
p2446
VD
sS'thoughtlessness'
p2447
VTH
p2448
sS'bedfordshire'
p2449
VB
sS'responsibilise'
p2450
VR
sS'globalisation'
p2451
VG
sS'americanically'
p2452
VAH
p2453
sS'unseaworthy'
p2454
VAH
p2455
sS'leyla'
p2456
VL
sS'combated'
p2457
VK
sS'jov'
p2458
VJH
p2459
sS'ld'
p2460
VAH
p2461
sS'chaquelan'
p2462
VSH
p2463
sS'cymru'
p2464
VS
sS'rutelli'
p2465
VR
sS'eta'
p2466
VIY
p2467
sS'utilising'
p2468
VY
sS'avil'
p2469
VAE
p2470
sS'cl'
p2471
VK
sS'authorised'
p2472
VAO
p2473
sS'maliakos'
p2474
VM
sS'fipol'
p2475
VF
sS'ce'
p2476
VS
sS'hm3'
p2477
VAH
p2478
sS'vend'
p2479
VV
sS'juger'
p2480
VJH
p2481
sS'normalisation'
p2482
VN
sS'uck'
p2483
VAH
p2484
sS'regenerative'
p2485
VR
sS'cu'
p2486
VK
sS'authorises'
p2487
VAO
p2488
sS'codecisions'
p2489
VK
sS'ecips'
p2490
VEH
p2491
sS'azad'
p2492
VAH
p2493
sS'minimise'
p2494
VM
sS'externalising'
p2495
VIH
p2496
sS'manifestos'
p2497
VM
sS'exploiters'
p2498
VIH
p2499
sS'neighbour'
p2500
VN
sS'patriotisms'
p2501
VP
sS'mouskouri'
p2502
VM
sS'subparagraph'
p2503
VS
sS'paasilinna'
p2504
VP
sS'frameworks'
p2505
VF
sS'synergistically'
p2506
VS
sS'intranet'
p2507
VIH
p2508
sS'backbenchers'
p2509
VB
sS'caudron'
p2510
VK
sS'lassitude'
p2511
VL
sS'galeote'
p2512
VG
sS'retabled'
p2513
VR
sS'hobbyhorse'
p2514
VHH
p2515
sS'monopolised'
p2516
VM
sS'kosovan'
p2517
VK
sS'biannually'
p2518
VB
sS'anthroprogenic'
p2519
VAE
p2520
sS'termism'
p2521
VT
sS'chapeau'
p2522
VSH
p2523
sS'vp'
p2524
VV
sS'pedalling'
p2525
VP
sS'kosovar'
p2526
VK
sS'philoxenia'
p2527
VF
sS'industrialisation'
p2528
VIH
p2529
sS'avc'
p2530
VAE
p2531
sS'rendaire'
p2532
VR
sS'justiciable'
p2533
VJH
p2534
sS'voivodina'
p2535
VV
sS'neyra'
p2536
VN
sS'codecision'
p2537
VK
sS'docups'
p2538
VD
sS'fifthly'
p2539
VF
sS'brahim'
p2540
VB
sS'indivisibility'
p2541
VIH
p2542
sS'politicise'
p2543
VP
sS'garaud'
p2544
VG
sS'concordance'
p2545
VK
sS'vilagarcia'
p2546
VV
sS'schr'
p2547
VS
sS'metamorphosing'
p2548
VM
sS'realises'
p2549
VR
sS'giorgios'
p2550
VJH
p2551
sS'colour'
p2552
VK
sS'underspent'
p2553
VAH
p2554
sS'neorealist'
p2555
VN
sS'herinneringen'
p2556
VHH
p2557
sS'hushkit'
p2558
VHH
p2559
sS'kuckelkorn'
p2560
VK
sS'realised'
p2561
VR
sS'sourced'
p2562
VS
sS'juncker'
p2563
VJH
p2564
sS'carnero'
p2565
VK
sS'poettering'
p2566
VP
sS'disrupters'
p2567
VD
sS'corruptibility'
p2568
VK
sS'crunchie'
p2569
VK
sS'antisemitism'
p2570
VAE
p2571
sS'hypocritically'
p2572
VHH
p2573
sS'adr'
p2574
VAE
p2575
sS'wallstr'
p2576
VW
sS'urbanisation'
p2577
VER
p2578
sS'nter'
p2579
VN
sS'cushnahan'
p2580
VK
sS'optimising'
p2581
VAA
p2582
sS'weu'
p2583
VW
sS'practise'
p2584
VP
sS'assistito'
p2585
VAH
p2586
sS'impositions'
p2587
VIH
p2588
sS'ectaa'
p2589
VEH
p2590
sS'normalise'
p2591
VN
sS'poggiolini'
p2592
VP
sS'meaningfulness'
p2593
VM
sS'gorostiaga'
p2594
VG
sS'marketeering'
p2595
VM
sS'supping'
p2596
VS
sS'madariaga'
p2597
VM
sS'realit'
p2598
VR
sS'unnoted'
p2599
VAH
p2600
sS'candu'
p2601
VK
sS'maghreb'
p2602
VM
sS'dutroux'
p2603
VD
sS'colonising'
p2604
VK
sS'agusta'
p2605
VAA
p2606
sS'muscardini'
p2607
VM
sS'troposphere'
p2608
VT
sS'circuitously'
p2609
VS
sS'bizarrely'
p2610
VB
sS'thaci'
p2611
VTH
p2612
sS'abusively'
p2613
VAH
p2614
sS'desama'
p2615
VD
sS'conver'
p2616
VK
sS'transposing'
p2617
VT
sS'crewing'
p2618
VK
sS'rapkay'
p2619
VR
sS'14th'
p2620
VAH
p2621
sS'esf'
p2622
VEH
p2623
sS'esc'
p2624
VEH
p2625
sS'fudges'
p2626
VF
sS'esa'
p2627
VIY
p2628
sS'alkartasuna'
p2629
VAE
p2630
sS'analysed'
p2631
VAE
p2632
sS'sarre'
p2633
VS
sS'piggledy'
p2634
VP
sS'viviane'
p2635
VV
sS'cumulation'
p2636
VK
sS'kosovars'
p2637
VK
sS'zootechnical'
p2638
VZ
sS'chocoholics'
p2639
VCH
p2640
sS'transitive'
p2641
VT
sS'mammon'
p2642
VM
sS'mcduck'
p2643
VM
sS'localised'
p2644
VL
sS'unfavourable'
p2645
VAH
p2646
sS'alimentarius'
p2647
VAE
p2648
sS'disgracefully'
p2649
VD
sS'unfavourably'
p2650
VAH
p2651
sS'endeavours'
p2652
VEH
p2653
sS'tidied'
p2654
VT
sS'sahrawis'
p2655
VS
sS'desertification'
p2656
VD
sS'interethnic'
p2657
VIH
p2658
sS'liikanen'
p2659
VL
sS'rothley'
p2660
VR
sS'unwished'
p2661
VAH
p2662
sS'posselt'
p2663
VP
sS'dispensaries'
p2664
VD
sS'gretab'
p2665
VG
sS'institutionalising'
p2666
VIH
p2667
sS'finalisation'
p2668
VF
sS'demonising'
p2669
VD
sS'pernickety'
p2670
VP
sS'hm'
p2671
VAH
p2672
sS'bridgeheads'
p2673
VB
sS'wuori'
p2674
VW
sS'detestable'
p2675
VD
sS'macedonians'
p2676
VM
sS'minuted'
p2677
VM
sS'gaborone'
p2678
VG
sS'mistranslation'
p2679
VM
sS'simla'
p2680
VS
sS'bce'
p2681
VB
sS'destabilise'
p2682
VD
sS'hipc'
p2683
VHH
p2684
sS'democratise'
p2685
VD
sS'ini'
p2686
VIY
p2687
sS'intradermal'
p2688
VIH
p2689
sS'youthstart'
p2690
VY
sS'bartho'
p2691
VB
sS'postmen'
p2692
VP
sS'decourri'
p2693
VD
sS'disinheriting'
p2694
VD
sS'oau'
p2695
VOW
p2696
sS'srms'
p2697
VS
sS'neighbourhood'
p2698
VN
sS'latterly'
p2699
VL
sS'standardise'
p2700
VS
sS'blameworthy'
p2701
VB
sS'1kg'
p2702
VG
sS'belder'
p2703
VB
sS'equalising'
p2704
VIY
p2705
sS'cheque'
p2706
VCH
p2707
sS'disjunction'
p2708
VD
sS'insipid'
p2709
VIH
p2710
sS'galvanise'
p2711
VG
sS'herbivores'
p2712
VHH
p2713
sS'entreat'
p2714
VEH
p2715
sS'trakatellis'
p2716
VT
sS'queir'
p2717
VK
s.