(dp1
S'schengen'
p2
VSH
p3
sS'boilersuit'
p4
VB
sS'unice'
p5
VY
sS'geresta'
p6
VJH
p7
sS'collating'
p8
VK
sS'iuris'
p9
VY
sS'souladakis'
p10
VS
sS'batasuna'
p11
VB
sS'peripheries'
p12
VP
sS'veux'
p13
VV
sS'jeopardising'
p14
VJH
p15
sS'crisex'
p16
VK
sS'velzen'
p17
VV
sS'andalucia'
p18
VAE
p19
sS'characterises'
p20
VK
sS'parit'
p21
VP
sS'neighbours'
p22
VN
sS'brempt'
p23
VB
sS'characterised'
p24
VK
sS'categorisation'
p25
VK
sS'derogate'
p26
VD
sS'environnement'
p27
VEH
p28
sS'rashly'
p29
VR
sS'adige'
p30
VAE
p31
sS'levelling'
p32
VL
sS'jaca'
p33
VJH
p34
sS'achievability'
p35
VEY
p36
sS'murcia'
p37
VM
sS'subsidising'
p38
VS
sS'globalising'
p39
VG
sS'subprogrammes'
p40
VS
sS'markov'
p41
VM
sS'unauthorised'
p42
VAH
p43
sS'fogh'
p44
VF
sS'chev'
p45
VCH
p46
sS'interparliamentary'
p47
VIH
p48
sS'prising'
p49
VP
sS'capitalisation'
p50
VK
sS'ilisu'
p51
VIH
p52
sS'rouen'
p53
VR
sS'cantabrian'
p54
VK
sS'draftsperson'
p55
VD
sS'abogado'
p56
VAA
p57
sS'nen'
p58
VN
sS'faecal'
p59
VF
sS'atlantique'
p60
VAE
p61
sS'nea'
p62
VN
sS'alavanos'
p63
VAE
p64
sS'sittings'
p65
VS
sS'ner'
p66
VN
sS'phthalates'
p67
VF
sS'watercourse'
p68
VW
sS'unmotivated'
p69
VAH
p70
sS'hemicycle'
p71
VHH
p72
sS'schierhuber'
p73
VSH
p74
sS'repugnance'
p75
VR
sS'ventilators'
p76
VV
sS'specialise'
p77
VS
sS'mep'
p78
VM
sS'mediagoguery'
p79
VM
sS'feedstuffs'
p80
VF
sS'antisemitic'
p81
VAE
p82
sS'chlorides'
p83
VK
sS'karit'
p84
VK
sS'yarmouth'
p85
VY
sS'scharping'
p86
VSH
p87
sS'oloron'
p88
VAA
p89
sS'ermua'
p90
VER
p91
sS'populaire'
p92
VP
sS'nulla'
p93
VN
sS'summarising'
p94
VS
sS'criticise'
p95
VK
sS'remedium'
p96
VR
sS'lldcs'
p97
VL
sS'sympathise'
p98
VS
sS'specialising'
p99
VS
sS'pontevedra'
p100
VP
sS'exceedance'
p101
VIH
p102
sS'cloven'
p103
VK
sS'rationalise'
p104
VR
sS'dalmau'
p105
VD
sS'eurojust'
p106
VY
sS'imperilling'
p107
VIH
p108
sS'tranquillity'
p109
VT
sS'pomes'
p110
VP
sS'antidemocratic'
p111
VAE
p112
sS'nement'
p113
VN
sS'supranationally'
p114
VS
sS'oarsmen'
p115
VAO
p116
sS'enfopol'
p117
VEH
p118
sS'muss'
p119
VM
sS'resurfaces'
p120
VR
sS'equilateral'
p121
VEH
p122
sS'jeopardises'
p123
VJH
p124
sS'camre'
p125
VK
sS'civilisations'
p126
VS
sS'jeopardised'
p127
VJH
p128
sS'mp'
p129
VEH
p130
sS'radicalisation'
p131
VR
sS'quaestor'
p132
VK
sS'hayfork'
p133
VHH
p134
sS'envisaging'
p135
VEH
p136
sS'microcredits'
p137
VM
sS'teratogenicity'
p138
VT
sS'frescos'
p139
VF
sS'gats'
p140
VG
sS'margallo'
p141
VM
sS'hor'
p142
VHH
p143
sS'iiia'
p144
VIY
p145
sS'iiic'
p146
VAY
p147
sS'finalise'
p148
VF
sS'confederal'
p149
VK
sS'utilise'
p150
VY
sS'memoires'
p151
VM
sS'carinthia'
p152
VK
sS'underhand'
p153
VAH
p154
sS'publicised'
p155
VP
sS'disassembly'
p156
VD
sS'undesired'
p157
VAH
p158
sS'endeavoured'
p159
VEH
p160
sS'rouses'
p161
VR
sS'ewc'
p162
VEH
p163
sS'acidifying'
p164
VAH
p165
sS'parcours'
p166
VP
sS'sterilisation'
p167
VS
sS'offal'
p168
VAH
p169
sS'cascais'
p170
VK
sS'extents'
p171
VIH
p172
sS'europeanisation'
p173
VY
sS'fifg'
p174
VF
sS'priding'
p175
VP
sS'shipwrecked'
p176
VSH
p177
sS'telegrammatic'
p178
VT
sS'feedingstuff'
p179
VF
sS'galician'
p180
VG
sS'anweisungen'
p181
VAE
p182
sS'gligorov'
p183
VG
sS'incoherences'
p184
VIH
p185
sS'inadmissibility'
p186
VIH
p187
sS'literates'
p188
VL
sS'imf'
p189
VIH
p190
sS'cle'
p191
VK
sS'encapsulates'
p192
VEH
p193
sS'carrefours'
p194
VK
sS'ftse'
p195
VEH
p196
sS'jackboot'
p197
VJH
p198
sS'centralising'
p199
VS
sS'reconverted'
p200
VR
sS'colourless'
p201
VK
sS'paronen'
p202
VP
sS'floodtide'
p203
VF
sS'hatzidakis'
p204
VHH
p205
sS'hertfordshire'
p206
VHH
p207
sS'relaunching'
p208
VR
sS'mayoress'
p209
VM
sS'tuberculin'
p210
VT
sS'souchet'
p211
VS
sS'regionalisation'
p212
VR
sS'practising'
p213
VP
sS'extrajudicial'
p214
VIH
p215
sS'domicile'
p216
VD
sS'rt'
p217
VR
sS'rr'
p218
VR
sS'collaborates'
p219
VK
sS'recognising'
p220
VR
sS'sourced'
p221
VS
sS'ry'
p222
VR
sS'sintra'
p223
VS
sS'multicoloured'
p224
VM
sS'rg'
p225
VAA
p226
sS'unromantic'
p227
VAH
p228
sS'rc'
p229
VR
sS'sme'
p230
VS
sS'rh'
p231
VAA
p232
sS'communitisation'
p233
VK
sS'rk'
p234
VR
sS'obnova'
p235
VAH
p236
sS'higgledy'
p237
VHH
p238
sS'bertel'
p239
VB
sS'collation'
p240
VK
sS'mudflats'
p241
VM
sS'sichrovsky'
p242
VS
sS'r4'
p243
VAA
p244
sS'hollowness'
p245
VHH
p246
sS'hainaut'
p247
VHH
p248
sS'redrafts'
p249
VR
sS'att'
p250
VAE
p251
sS'iso'
p252
VIY
p253
sS'isn'
p254
VIH
p255
sS'1970s'
p256
VAH
p257
sS'wipo'
p258
VW
sS'benchmarking'
p259
VB
sS'favoured'
p260
VF
sS'popularise'
p261
VP
sS'officious'
p262
VAH
p263
sS'operability'
p264
VAA
p265
sS'wasn'
p266
VW
sS'underspends'
p267
VAH
p268
sS'movimento'
p269
VM
sS'lega'
p270
VL
sS'activators'
p271
VAE
p272
sS'vitoria'
p273
VV
sS'mamre'
p274
VM
sS'staes'
p275
VS
sS'decentralised'
p276
VD
sS'cabling'
p277
VK
sS'romanies'
p278
VR
sS'sidelining'
p279
VS
sS'a32'
p280
VEY
p281
sS'bjerregaard'
p282
VB
sS'17a'
p283
VD
sS'nh3'
p284
VEH
p285
sS'schroedter'
p286
VSH
p287
sS'entente'
p288
VEH
p289
sS'reactivation'
p290
VR
sS'cisterna'
p291
VS
sS'fossilised'
p292
VF
sS'ghilardotti'
p293
VG
sS'whinging'
p294
VW
sS'democratique'
p295
VD
sS'auctoritas'
p296
VAO
p297
sS'speediness'
p298
VS
sS'administrated'
p299
VAH
p300
sS'myller'
p301
VM
sS'jeopardise'
p302
VJH
p303
sS'unhcr'
p304
VAH
p305
sS'fathomless'
p306
VF
sS'brominated'
p307
VB
sS'drogheda'
p308
VD
sS'communitise'
p309
VK
sS'overstrained'
p310
VOW
p311
sS'sysmin'
p312
VS
sS'denkta'
p313
VD
sS'colourful'
p314
VK
sS'kfor'
p315
VK
sS'paralyse'
p316
VP
sS'enshrining'
p317
VAH
p318
sS'omagh'
p319
VAH
p320
sS'guillemots'
p321
VG
sS'rationalisation'
p322
VR
sS'ohne'
p323
VOW
p324
sS'lothar'
p325
VL
sS'irrigates'
p326
VIH
p327
sS'bse'
p328
VB
sS'ionising'
p329
VAY
p330
sS'untempted'
p331
VAH
p332
sS'mobilised'
p333
VM
sS'lacuna'
p334
VL
sS'abh'
p335
VAE
p336
sS'thorning'
p337
VTH
p338
sS'trivialisation'
p339
VT
sS'charterer'
p340
VCH
p341
sS'cynegetic'
p342
VS
sS'discourteous'
p343
VD
sS'inestimable'
p344
VIH
p345
sS'acquis'
p346
VAE
p347
sS'florenz'
p348
VF
sS'communiqu'
p349
VK
sS'ment'
p350
VM
sS'hrt'
p351
VHH
p352
sS'marinho'
p353
VM
sS'discretional'
p354
VD
sS'tsagaropoulou'
p355
VT
sS'ponnambalam'
p356
VP
sS'dm'
p357
VAH
p358
sS'dg'
p359
VJH
p360
sS'banotti'
p361
VB
sS'inelasticity'
p362
VIH
p363
sS'bradbourn'
p364
VB
sS'consorts'
p365
VK
sS'disequilibria'
p366
VD
sS'ispar'
p367
VAY
p368
sS'paedophiles'
p369
VP
sS'asturias'
p370
VAH
p371
sS'transhipped'
p372
VT
sS'ceyhun'
p373
VS
sS'ghettoisation'
p374
VG
sS'superstate'
p375
VS
sS'meps'
p376
VM
sS'ems'
p377
VEH
p378
sS'ardennes'
p379
VAA
p380
sS'flexibilising'
p381
VF
sS'vandalised'
p382
VV
sS'middelhoek'
p383
VM
sS'1960s'
p384
VAH
p385
sS'stegrennan'
p386
VS
sS'helcom'
p387
VHH
p388
sS'supranationalism'
p389
VS
sS'co2'
p390
VK
sS'erhalten'
p391
VER
p392
sS'globalist'
p393
VG
sS'sakellariou'
p394
VS
sS'natura'
p395
VN
sS'liaise'
p396
VL
sS'geberlandes'
p397
VG
sS'visualise'
p398
VV
sS'inspectorates'
p399
VIH
p400
sS'auroi'
p401
VAO
p402
sS'mistimed'
p403
VM
sS'institutionalised'
p404
VIH
p405
sS'rapporteur'
p406
VR
sS'wto'
p407
VT
sS'civilised'
p408
VS
sS'pietrasanta'
p409
VP
sS'vallelersundi'
p410
VV
sS'sympathises'
p411
VS
sS'timescale'
p412
VT
sS'offloading'
p413
VAO
p414
sS'honouring'
p415
VAA
p416
sS'unapplied'
p417
VAH
p418
sS'2nd'
p419
VD
sS'unnoted'
p420
VAH
p421
sS'godparent'
p422
VG
sS'rushailo'
p423
VR
sS'interrelations'
p424
VIH
p425
sS'levante'
p426
VL
sS'organisational'
p427
VAO
p428
sS'berenguer'
p429
VB
sS'recognises'
p430
VR
sS'frf'
p431
VF
sS'criticised'
p432
VK
sS'wisemen'
p433
VW
sS'recognised'
p434
VR
sS'josse'
p435
VJH
p436
sS'criticises'
p437
VK
sS'abuja'
p438
VAE
p439
sS'trojer'
p440
VT
sS'25o'
p441
VN
sS'criminalised'
p442
VK
sS'bizonal'
p443
VB
sS'criminalises'
p444
VK
sS'europeanist'
p445
VY
sS'gnp'
p446
VEH
p447
sS'organisers'
p448
VAO
p449
sS'marginalised'
p450
VM
sS'bandying'
p451
VB
sS'duping'
p452
VD
sS'viii'
p453
VV
sS'aeroplane'
p454
VEH
p455
sS'ix'
p456
VIH
p457
sS'persecutory'
p458
VP
sS'daladier'
p459
VD
sS'derisory'
p460
VD
sS'nationalrat'
p461
VN
sS'iv'
p462
VAY
p463
sS'ii'
p464
VAY
p465
sS'iccat'
p466
VIH
p467
sS'theato'
p468
VTH
p469
sS'impasses'
p470
VIH
p471
sS'phare'
p472
VF
sS'sterckx'
p473
VS
sS'autarkic'
p474
VAO
p475
sS'coastguard'
p476
VK
sS'plimsoll'
p477
VP
sS'authorise'
p478
VAO
p479
sS'sovereignties'
p480
VS
sS'urquiola'
p481
VER
p482
sS'cederschi'
p483
VS
sS'gorsel'
p484
VG
sS'imbues'
p485
VIH
p486
sS'continentalisation'
p487
VK
sS'characterise'
p488
VK
sS'eusko'
p489
VY
sS'emphasise'
p490
VEH
p491
sS'nio'
p492
VN
sS'bolkestein'
p493
VB
sS'rogatory'
p494
VR
sS'mailshots'
p495
VM
sS'nationalisation'
p496
VN
sS'hadera'
p497
VHH
p498
sS'sperkhios'
p499
VS
sS'besque'
p500
VB
sS'centred'
p501
VS
sS'conciliations'
p502
VK
sS'paralysed'
p503
VP
sS'beavering'
p504
VB
sS'howitts'
p505
VHH
p506
sS'juridical'
p507
VJH
p508
sS'prioritising'
p509
VP
sS'crewed'
p510
VK
sS'elmar'
p511
VEH
p512
sS'harmonise'
p513
VHH
p514
sS'dogmas'
p515
VD
sS'yeu'
p516
VY
sS'dunams'
p517
VD
sS'biscay'
p518
VB
sS'europeanise'
p519
VY
sS'illipe'
p520
VIH
p521
sS'igal'
p522
VAY
p523
sS'5g'
p524
VG
sS'5b'
p525
VB
sS'hedkvist'
p526
VHH
p527
sS'calvinists'
p528
VK
sS'sapar'
p529
VS
sS'kotka'
p530
VK
sS'silting'
p531
VS
sS'deckchairs'
p532
VD
sS'scrutinised'
p533
VS
sS'portuguesa'
p534
VP
sS'borr'
p535
VB
sS'wwf'
p536
VW
sS'evincing'
p537
VIY
p538
sS'polycentric'
p539
VP
sS'destabilising'
p540
VD
sS'cns'
p541
VS
sS'fascistic'
p542
VF
sS'unambitious'
p543
VAH
p544
sS'icg'
p545
VIH
p546
sS'honoured'
p547
VAA
p548
sS'ict'
p549
VIH
p550
sS'gollnisch'
p551
VG
sS'ecus'
p552
VIY
p553
sS'mollar'
p554
VM
sS'kandal'
p555
VK
sS'untiringly'
p556
VAH
p557
sS'voinet'
p558
VV
sS'tyres'
p559
VT
sS'eneko'
p560
VEH
p561
sS'collectivity'
p562
VK
sS'rationalisations'
p563
VR
sS'eec'
p564
VIY
p565
sS'depopulated'
p566
VD
sS'coraz'
p567
VK
sS'indigestible'
p568
VIH
p569
sS'dineh'
p570
VD
sS'discourtesy'
p571
VD
sS'ppe'
p572
VP
sS'resourcing'
p573
VR
sS'nought'
p574
VN
sS'22a'
p575
VD
sS'ussr'
p576
VAH
p577
sS'1990s'
p578
VAH
p579
sS'multifunctional'
p580
VM
sS'nihilo'
p581
VN
sS'internalisation'
p582
VIH
p583
sS'abjectly'
p584
VAE
p585
sS'att3'
p586
VAE
p587
sS'noirmoutier'
p588
VN
sS'oomen'
p589
VOW
p590
sS'irreprehensible'
p591
VIH
p592
sS'quousque'
p593
VK
sS'comart'
p594
VK
sS'therefrom'
p595
VTH
p596
sS'foro'
p597
VF
sS'straggly'
p598
VS
sS'solidar'
p599
VS
sS'semiological'
p600
VS
sS'analyse'
p601
VAE
p602
sS'so2'
p603
VS
sS'transregional'
p604
VT
sS'canfranc'
p605
VK
sS'solas'
p606
VS
sS'heteronomous'
p607
VHH
p608
sS'charterers'
p609
VCH
p610
sS'individualised'
p611
VIH
p612
sS'centralist'
p613
VS
sS'hectolitres'
p614
VHH
p615
sS'centralise'
p616
VS
sS'erdf'
p617
VER
p618
sS'dreifuss'
p619
VD
sS'meagre'
p620
VM
sS'fuster'
p621
VF
sS'regurgitating'
p622
VR
sS'regularisation'
p623
VR
sS'liberalise'
p624
VL
sS'phytosanitary'
p625
VF
sS'merseyside'
p626
VM
sS'nl'
p627
VEH
p628
sS'nf'
p629
VEH
p630
sS'unsustainability'
p631
VAH
p632
sS'rspb'
p633
VR
sS'charente'
p634
VCH
p635
sS'mediaeval'
p636
VM
sS'jurti'
p637
VJH
p638
sS'babitsky'
p639
VB
sS'boumediene'
p640
VB
sS'functionalist'
p641
VF
sS'crystallised'
p642
VK
sS'ringholm'
p643
VR
sS'crystallise'
p644
VK
sS'stabex'
p645
VS
sS'aquacultures'
p646
VAE
p647
sS'roo'
p648
VR
sS'amiens'
p649
VEY
p650
sS'reformulating'
p651
VR
sS'tses'
p652
VT
sS'swingeing'
p653
VS
sS'interrelatedness'
p654
VIH
p655
sS'rationalised'
p656
VR
sS'trepca'
p657
VT
sS'privatisations'
p658
VP
sS'ostreiculture'
p659
VAO
p660
sS'stagiaires'
p661
VS
sS'aspe'
p662
VAE
p663
sS'21st'
p664
VEH
p665
sS'bioplastic'
p666
VB
sS'summarises'
p667
VS
sS'taylorism'
p668
VT
sS'underpins'
p669
VAH
p670
sS'vez'
p671
VV
sS'summarised'
p672
VS
sS'euskal'
p673
VY
sS'caillaux'
p674
VK
sS'additionality'
p675
VAH
p676
sS'georgievski'
p677
VJH
p678
sS'mooted'
p679
VM
sS'decreeing'
p680
VD
sS'salsigne'
p681
VS
sS'mobilise'
p682
VM
sS'bicommunal'
p683
VB
sS'mintoff'
p684
VM
sS'magps'
p685
VM
sS'litigable'
p686
VL
sS'consorted'
p687
VK
sS'viceconte'
p688
VV
sS'bilges'
p689
VB
sS'militarisation'
p690
VM
sS'alicante'
p691
VAE
p692
sS'hler'
p693
VHH
p694
sS'procacci'
p695
VP
sS'petersberg'
p696
VP
sS'landaburu'
p697
VL
sS'generalisations'
p698
VJH
p699
sS'unmik'
p700
VAH
p701
sS'minimis'
p702
VM
sS'unmic'
p703
VAH
p704
sS'tsatsos'
p705
VT
sS'libertatum'
p706
VL
sS'eutrophying'
p707
VY
sS'favour'
p708
VF
sS'hotrec'
p709
VHH
p710
sS'guererro'
p711
VG
sS'ldcs'
p712
VEY
p713
sS'exceedances'
p714
VIH
p715
sS'honour'
p716
VAA
p717
sS'topicality'
p718
VT
sS'plooij'
p719
VP
sS'pretence'
p720
VP
sS'suspensory'
p721
VS
sS'inflationist'
p722
VIH
p723
sS'maximising'
p724
VM
sS'scrapyards'
p725
VS
sS'bp'
p726
VB
sS'alyssandrakis'
p727
VAE
p728
sS'attwooll'
p729
VAH
p730
sS'humour'
p731
VHH
p732
sS'keenness'
p733
VK
sS'queiro'
p734
VK
sS'europol'
p735
VY
sS'fbi'
p736
VEH
p737
sS'sensitised'
p738
VS
sS'ucits'
p739
VY
sS'antiracism'
p740
VAE
p741
sS'docups'
p742
VD
sS'gulags'
p743
VG
sS'altener'
p744
VAO
p745
sS'runnymede'
p746
VR
sS'dimokratia'
p747
VD
sS'msf'
p748
VM
sS'andr'
p749
VAE
p750
sS'untrammelled'
p751
VAH
p752
sS'tsarist'
p753
VT
sS'chocolatl'
p754
VCH
p755
sS'subsidisation'
p756
VS
sS'retrospection'
p757
VR
sS'maximise'
p758
VM
sS'upgradable'
p759
VAH
p760
sS'ovine'
p761
VOW
p762
sS'schoolmasterish'
p763
VS
sS'marginalisation'
p764
VM
sS'emphasising'
p765
VEH
p766
sS'modernised'
p767
VM
sS'ibm'
p768
VIH
p769
sS'socialisation'
p770
VS
sS'lieneman'
p771
VL
sS'cabeza'
p772
VK
sS'bureaux'
p773
VB
sS'indolence'
p774
VIH
p775
sS'usability'
p776
VY
sS'solbes'
p777
VS
sS'gillnets'
p778
VG
sS'1980s'
p779
VAH
p780
sS'detaching'
p781
VD
sS'wordings'
p782
VW
sS'franconian'
p783
VF
sS'litre'
p784
VL
sS'conurbation'
p785
VK
sS'grosset'
p786
VG
sS'naivety'
p787
VN
sS'repulsion'
p788
VR
sS'cecaf'
p789
VS
sS'strictness'
p790
VS
sS'unsorted'
p791
VAH
p792
sS'liberalisation'
p793
VL
sS'neighbourliness'
p794
VN
sS'imbeni'
p795
VIH
p796
sS'motorway'
p797
VM
sS'subrogate'
p798
VS
sS'teratogenic'
p799
VT
sS'pilate'
p800
VP
sS'atat'
p801
VEY
p802
sS'forestier'
p803
VF
sS'deve'
p804
VD
sS'ss'
p805
VEH
p806
sS'sp'
p807
VS
sS'sv'
p808
VEH
p809
sS'idc'
p810
VAY
p811
sS'sj'
p812
VSH
p813
sS'neighbourhoods'
p814
VN
sS'paternalist'
p815
VP
sS'irresolute'
p816
VIH
p817
sS'rumoured'
p818
VR
sS'characterisations'
p819
VK
sS'councillor'
p820
VK
sS'maij'
p821
VM
sS'nol'
p822
VN
sS'applecart'
p823
VAE
p824
sS'recommenced'
p825
VR
sS'illogically'
p826
VIH
p827
sS'widescale'
p828
VW
sS'contravened'
p829
VK
sS'polyaromatic'
p830
VP
sS'nox'
p831
VN
sS'lancker'
p832
VL
sS'contravenes'
p833
VK
sS'nos'
p834
VN
sS'hulten'
p835
VHH
p836
sS'gemelli'
p837
VJH
p838
sS'rebalance'
p839
VR
sS'realise'
p840
VR
sS'hydrological'
p841
VHH
p842
sS'teaux'
p843
VT
sS'terr'
p844
VT
sS'caudillos'
p845
VK
sS'retarders'
p846
VR
sS'kkinen'
p847
VK
sS'tannock'
p848
VT
sS'communitising'
p849
VK
sS'ec'
p850
VEH
p851
sS'ostracised'
p852
VAA
p853
sS'ez'
p854
VEH
p855
sS'eu'
p856
VY
sS'ep'
p857
VEH
p858
sS'neighbourhood'
p859
VN
sS'adduced'
p860
VAH
p861
sS'racan'
p862
VR
sS'ugarten'
p863
VY
sS'ieke'
p864
VIY
p865
sS'alfanyurt'
p866
VAE
p867
sS'busybody'
p868
VB
sS'retrodisplacement'
p869
VR
sS'reformulation'
p870
VR
sS'inessential'
p871
VAY
p872
sS'ospar'
p873
VAA
p874
sS'penalising'
p875
VP
sS'aznar'
p876
VAE
p877
sS'schnellhardt'
p878
VSH
p879
sS'undesirably'
p880
VAH
p881
sS'apologising'
p882
VAH
p883
sS'industrialised'
p884
VIH
p885
sS'invalidity'
p886
VIH
p887
sS'feedingstuffs'
p888
VF
sS'rapporteurs'
p889
VR
sS'reductionist'
p890
VR
sS'reclassifications'
p891
VR
sS'xx'
p892
VK
sS'wallonian'
p893
VW
sS'dramatised'
p894
VD
sS'ocha'
p895
VAA
p896
sS'modernise'
p897
VM
sS'reorganising'
p898
VR
sS'1c'
p899
VS
sS'immortalised'
p900
VIH
p901
sS'modernisation'
p902
VM
sS'clamouring'
p903
VK
sS'asymmetric'
p904
VEY
p905
sS'pnv'
p906
VAE
p907
sS'imputations'
p908
VIH
p909
sS'gastroenteritis'
p910
VG
sS'interreg'
p911
VIH
p912
sS'optimise'
p913
VAA
p914
sS'grammes'
p915
VG
sS'modelled'
p916
VM
sS'eurosceptic'
p917
VY
sS'westendorp'
p918
VW
sS'interservice'
p919
VIH
p920
sS'standardised'
p921
VS
sS'scandalised'
p922
VS
sS'eudor'
p923
VOY
p924
sS'watercourses'
p925
VW
sS'sahel'
p926
VS
sS'urbanisation'
p927
VER
p928
sS'dynamically'
p929
VD
sS'demotivation'
p930
VD
sS'seabirds'
p931
VS
sS'unowned'
p932
VY
sS'barzanti'
p933
VB
sS'karelia'
p934
VK
sS'wct'
p935
VW
sS'leinster'
p936
VL
sS'55th'
p937
VAH
p938
sS'algarve'
p939
VAE
p940
sS'authorising'
p941
VAO
p942
sS'degassing'
p943
VD
sS'errez'
p944
VEH
p945
sS'renan'
p946
VR
sS'transnationality'
p947
VT
sS'bourlanges'
p948
VB
sS'incentivise'
p949
VIH
p950
sS'iniquitous'
p951
VIH
p952
sS'padanian'
p953
VP
sS'folketing'
p954
VF
sS'tarek'
p955
VT
sS'methodologically'
p956
VM
sS'rfler'
p957
VR
sS'colegislator'
p958
VK
sS'antiracist'
p959
VAE
p960
sS'readmission'
p961
VR
sS'rebalanced'
p962
VR
sS'manoeuvre'
p963
VM
sS'competitivity'
p964
VK
sS'blace'
p965
VB
sS'coherences'
p966
VK
sS'godlike'
p967
VG
sS'gew'
p968
VJH
p969
sS'enumerations'
p970
VAH
p971
sS'remoter'
p972
VR
sS'interregional'
p973
VIH
p974
sS'honours'
p975
VAA
p976
sS'sisyphus'
p977
VS
sS'undemanding'
p978
VAH
p979
sS'segni'
p980
VS
sS'cuxhaven'
p981
VK
sS'diversities'
p982
VD
sS'abano'
p983
VAA
p984
sS'cordiale'
p985
VK
sS'ence'
p986
VEH
p987
sS'jettons'
p988
VJH
p989
sS'malmstr'
p990
VM
sS'obejct'
p991
VAH
p992
sS'guterres'
p993
VG
sS'cavalese'
p994
VK
sS'poena'
p995
VP
sS'obfuscates'
p996
VAA
p997
sS'roure'
p998
VR
sS'compliances'
p999
VK
sS'harmonised'
p1000
VHH
p1001
sS'legale'
p1002
VL
sS'misinterpretations'
p1003
VM
sS'wallonia'
p1004
VW
sS'foisting'
p1005
VF
sS'feasibilities'
p1006
VF
sS'colours'
p1007
VK
sS'recognisable'
p1008
VR
sS'harmonises'
p1009
VHH
p1010
sS'recourses'
p1011
VR
sS'innovatively'
p1012
VIH
p1013
sS'conformism'
p1014
VK
sS'tacis'
p1015
VT
sS'tanio'
p1016
VT
sS'scrutinise'
p1017
VS
sS'militarised'
p1018
VM
sS'beguin'
p1019
VB
sS'roadworthiness'
p1020
VR
sS'rostock'
p1021
VR
sS'antisemite'
p1022
VAE
p1023
sS'cips'
p1024
VS
sS'rivalled'
p1025
VR
sS'generalisation'
p1026
VJH
p1027
sS'shamefully'
p1028
VSH
p1029
sS'twix'
p1030
VT
sS'harbouring'
p1031
VHH
p1032
sS'marriageable'
p1033
VM
sS'promptness'
p1034
VP
sS'reworded'
p1035
VR
sS'delocalisation'
p1036
VD
sS'mainstreamed'
p1037
VM
sS'millimetre'
p1038
VM
sS'practises'
p1039
VP
sS'korakas'
p1040
VK
sS'cfsp'
p1041
VEH
p1042
sS'arta'
p1043
VAA
p1044
sS'sessional'
p1045
VS
sS'dadaist'
p1046
VD
sS'practised'
p1047
VP
sS'dovetailing'
p1048
VD
sS'renewables'
p1049
VR
sS'spongiform'
p1050
VS
sS'derogation'
p1051
VD
sS'legislations'
p1052
VL
sS'paedophilia'
p1053
VP
sS'precariousness'
p1054
VP
sS'specialised'
p1055
VS
sS'legitimise'
p1056
VL
sS'eib'
p1057
VAY
p1058
sS'efterl'
p1059
VEH
p1060
sS'accessions'
p1061
VAH
p1062
sS'specialises'
p1063
VS
sS'prescriptive'
p1064
VP
sS'demilitarised'
p1065
VD
sS'stabilising'
p1066
VS
sS'caprine'
p1067
VK
sS'echternach'
p1068
VEH
p1069
sS'blak'
p1070
VB
sS'trentin'
p1071
VT
sS'quaestors'
p1072
VK
sS'litres'
p1073
VL
sS'clientelism'
p1074
VK
sS'turmes'
p1075
VT
sS'geostrategic'
p1076
VJH
p1077
sS'pau'
p1078
VP
sS'ultimum'
p1079
VAH
p1080
sS'enquiries'
p1081
VEH
p1082
sS'putin'
p1083
VP
sS'legitimises'
p1084
VL
sS'riis'
p1085
VR
sS'dogmatisers'
p1086
VD
sS'ronique'
p1087
VR
sS'despatched'
p1088
VD
sS'sahrawi'
p1089
VS
sS'ois'
p1090
VOY
p1091
sS'legitimised'
p1092
VL
sS'pures'
p1093
VP
sS'politicisation'
p1094
VP
sS'biotopes'
p1095
VB
sS'nchez'
p1096
VN
sS'codex'
p1097
VK
sS'taxifolia'
p1098
VT
sS'frontispiece'
p1099
VF
sS'rewording'
p1100
VR
sS'grappa'
p1101
VG
sS'renationalised'
p1102
VR
sS'gdp'
p1103
VJH
p1104
sS'anthropometric'
p1105
VAE
p1106
sS'comitology'
p1107
VK
sS'criminalise'
p1108
VK
sS'fvo'
p1109
VF
sS'xxviiith'
p1110
VS
sS'euros'
p1111
VY
sS'preventatively'
p1112
VP
sS'favouring'
p1113
VF
sS'bowis'
p1114
VB
sS'legitimisation'
p1115
VL
sS'roissy'
p1116
VR
sS'countrywomen'
p1117
VK
sS'culinaire'
p1118
VK
sS'offence'
p1119
VAH
p1120
sS'liba'
p1121
VL
sS'pse'
p1122
VS
sS'basest'
p1123
VB
sS'legalised'
p1124
VL
sS'penalised'
p1125
VP
sS'directorates'
p1126
VD
sS'montesquieu'
p1127
VM
sS'institutionalisation'
p1128
VIH
p1129
sS'gratifyingly'
p1130
VG
sS'tajo'
p1131
VT
sS'fulfil'
p1132
VF
sS'putrefaction'
p1133
VP
sS'neutralised'
p1134
VN
sS'csfs'
p1135
VEH
p1136
sS'normalisation'
p1137
VN
sS'complementarity'
p1138
VK
sS'competences'
p1139
VK
sS'dissociated'
p1140
VD
sS'centralised'
p1141
VS
sS'ddr'
p1142
VD
sS'defenceless'
p1143
VD
sS'reorientated'
p1144
VR
sS'antipathetic'
p1145
VAE
p1146
sS'cercas'
p1147
VS
sS'angelilli'
p1148
VAA
p1149
sS'decentralise'
p1150
VD
sS'teleworking'
p1151
VT
sS'tdi'
p1152
VT
sS'valletta'
p1153
VV
sS'contrario'
p1154
VK
sS'carefulness'
p1155
VK
sS'pluralist'
p1156
VP
sS'forgetfulness'
p1157
VF
sS'rauf'
p1158
VR
sS'caulerpa'
p1159
VK
sS'turkistan'
p1160
VT
sS'coincineration'
p1161
VK
sS'confederations'
p1162
VK
sS'acs'
p1163
VAE
p1164
sS'delimitation'
p1165
VD
sS'acp'
p1166
VAE
p1167
sS'scandalously'
p1168
VS
sS'albacete'
p1169
VAE
p1170
sS'guigou'
p1171
VG
sS'garc'
p1172
VG
sS'derogating'
p1173
VD
sS'dipecho'
p1174
VD
sS'councillors'
p1175
VK
sS'dustbins'
p1176
VD
sS'stabilisation'
p1177
VS
sS'het'
p1178
VHH
p1179
sS'eulogises'
p1180
VY
sS'scrs'
p1181
VS
sS'decentralising'
p1182
VD
sS'endeavouring'
p1183
VEH
p1184
sS'loi'
p1185
VL
sS'namhong'
p1186
VN
sS'dislocates'
p1187
VD
sS'preachifying'
p1188
VP
sS'labelling'
p1189
VL
sS'arte'
p1190
VAA
p1191
sS'discriminations'
p1192
VD
sS'oversteps'
p1193
VOW
p1194
sS'roseira'
p1195
VR
sS'ecemis'
p1196
VAH
p1197
sS'scorning'
p1198
VS
sS'fipol'
p1199
VF
sS'censures'
p1200
VS
sS'conakry'
p1201
VK
sS'usted'
p1202
VAH
p1203
sS'oostlander'
p1204
VUW
p1205
sS'300g'
p1206
VG
sS'buesa'
p1207
VB
sS'inflexibilities'
p1208
VIH
p1209
sS'criminalisation'
p1210
VK
sS'gonz'
p1211
VG
sS'subjugating'
p1212
VS
sS'twinnings'
p1213
VT
sS'schipol'
p1214
VS
sS'igc'
p1215
VAY
p1216
sS'stabilised'
p1217
VS
sS'poos'
p1218
VP
sS'superannuated'
p1219
VS
sS'deliveryman'
p1220
VD
sS'dishonour'
p1221
VD
sS'shamefaced'
p1222
VSH
p1223
sS'a5'
p1224
VAE
p1225
sS'a4'
p1226
VAE
p1227
sS'recognise'
p1228
VR
sS'cermis'
p1229
VS
sS'redressed'
p1230
VR
sS'websites'
p1231
VW
sS'thors'
p1232
VDH
p1233
sS'opportunely'
p1234
VAA
p1235
sS'rezala'
p1236
VR
sS'coreper'
p1237
VK
sS'ivoire'
p1238
VIH
p1239
sS'sch'
p1240
VSH
p1241
sS'unrestrainable'
p1242
VAH
p1243
sS'diamantopoulou'
p1244
VD
sS'overexploiting'
p1245
VOW
p1246
sS'moratinos'
p1247
VM
sS'fiducia'
p1248
VF
sS'tain'
p1249
VT
sS'adana'
p1250
VAA
p1251
sS'1930s'
p1252
VAH
p1253
sS'driftnets'
p1254
VD
sS'sceptically'
p1255
VS
sS'homepage'
p1256
VHH
p1257
sS'endogenous'
p1258
VEH
p1259
sS'subsidiarity'
p1260
VS
sS'weshalb'
p1261
VW
sS'regularise'
p1262
VR
sS'syllabuses'
p1263
VS
sS'alleanza'
p1264
VAA
p1265
sS'mps'
p1266
VM
sS'24th'
p1267
VAH
p1268
sS'generalised'
p1269
VJH
p1270
sS'pigmeat'
p1271
VP
sS'katiforis'
p1272
VK
sS'17th'
p1273
VAH
p1274
sS'marvellous'
p1275
VM
sS'ageing'
p1276
VAH
p1277
sS'minore'
p1278
VM
sS'rengie'
p1279
VR
sS'20th'
p1280
VAH
p1281
sS'overstretched'
p1282
VOW
p1283
sS'brucellosis'
p1284
VB
sS'communitarisation'
p1285
VK
sS'husbanded'
p1286
VHH
p1287
sS'honourably'
p1288
VAA
p1289
sS'denouncement'
p1290
VD
sS'qmv'
p1291
VK
sS'timescales'
p1292
VT
sS'honourable'
p1293
VAA
p1294
sS'rato'
p1295
VR
sS'titley'
p1296
VT
sS'provan'
p1297
VP
sS'billposters'
p1298
VB
sS'teu'
p1299
VT
sS'penalise'
p1300
VP
sS'theonas'
p1301
VTH
p1302
sS'abb'
p1303
VAE
p1304
sS'abc'
p1305
VAE
p1306
sS'sua'
p1307
VS
sS'ejido'
p1308
VEY
p1309
sS'smes'
p1310
VS
sS'correcta'
p1311
VK
sS'abm'
p1312
VAE
p1313
sS'carpegna'
p1314
VK
sS'reziproken'
p1315
VR
sS'passiveness'
p1316
VP
sS'vall'
p1317
VV
sS'rgensen'
p1318
VR
sS'seiten'
p1319
VS
sS'favourably'
p1320
VF
sS'behaviour'
p1321
VB
sS'favourable'
p1322
VF
sS'encephalopathies'
p1323
VEH
p1324
sS'emancipatory'
p1325
VAH
p1326
sS'eurodac'
p1327
VY
sS'osce'
p1328
VAO
p1329
sS'wogau'
p1330
VW
sS'50s'
p1331
VAH
p1332
sS'renunciations'
p1333
VR
sS'hilfen'
p1334
VHH
p1335
sS'euratom'
p1336
VY
sS'rugovo'
p1337
VR
sS'utilisation'
p1338
VY
sS'rutnet'
p1339
VR
sS'2000s'
p1340
VAH
p1341
sS'vit'
p1342
VV
sS'tesauro'
p1343
VT
sS'executable'
p1344
VEH
p1345
sS'intersectoral'
p1346
VIH
p1347
sS'wijkman'
p1348
VW
sS'oecd'
p1349
VOW
p1350
sS'budgetisation'
p1351
VB
sS'doubtlessly'
p1352
VD
sS'voggenhuber'
p1353
VV
sS'underprivileged'
p1354
VAH
p1355
sS'demining'
p1356
VD
sS'auvergne'
p1357
VOW
p1358
sS'uncomprehending'
p1359
VAH
p1360
sS'industrialisation'
p1361
VIH
p1362
sS'acheneau'
p1363
VAH
p1364
sS'cofinanced'
p1365
VK
sS'aspirational'
p1366
VAE
p1367
sS'kla'
p1368
VK
sS'klm'
p1369
VK
sS'sociale'
p1370
VS
sS'revitalising'
p1371
VR
sS'stregrennan'
p1372
VS
sS'bides'
p1373
VB
sS'infectivity'
p1374
VIH
p1375
sS'dubiously'
p1376
VD
sS'publicise'
p1377
VP
sS'eaggf'
p1378
VIY
p1379
sS'csf'
p1380
VEH
p1381
sS'unsystematically'
p1382
VAH
p1383
sS'refoulement'
p1384
VR
sS'csu'
p1385
VS
sS'ssel'
p1386
VS
sS'ssen'
p1387
VS
sS'civilisation'
p1388
VS
sS'fp'
p1389
VF
sS'fr'
p1390
VF
sS'inconceivably'
p1391
VIH
p1392
sS'limpopo'
p1393
VL
sS'ff'
p1394
VF
sS'pharmaceutiques'
p1395
VF
sS'conditio'
p1396
VK
sS'misnamed'
p1397
VM
sS'neuwerk'
p1398
VN
sS'misanthropic'
p1399
VM
sS'essere'
p1400
VEH
p1401
sS'unreservedly'
p1402
VAH
p1403
sS'lepos'
p1404
VL
sS'skilful'
p1405
VS
sS'isd'
p1406
VAY
p1407
sS'sebasti'
p1408
VS
sS'itl'
p1409
VIH
p1410
sS'traceability'
p1411
VT
sS'khmelnitsky'
p1412
VK
sS'blokland'
p1413
VB
sS'uctis'
p1414
VAH
p1415
sS'ruijten'
p1416
VR
sS'roadworthy'
p1417
VR
sS'ffh'
p1418
VF
sS'telluric'
p1419
VT
sS'factortame'
p1420
VF
sS'flimsier'
p1421
VF
sS'menceau'
p1422
VM
sS'labours'
p1423
VL
sS'unpolluted'
p1424
VAH
p1425
sS'andalusians'
p1426
VAE
p1427
sS'secondment'
p1428
VS
sS'bendit'
p1429
VB
sS'straitjacketed'
p1430
VS
sS'forbear'
p1431
VF
sS'gmos'
p1432
VM
sS'reordered'
p1433
VR
sS'ceo'
p1434
VS
sS'cen'
p1435
VS
sS'cem'
p1436
VS
sS'impostures'
p1437
VIH
p1438
sS'ectaa'
p1439
VEH
p1440
sS'huhne'
p1441
VHH
p1442
sS'ortuondo'
p1443
VAO
p1444
sS'aglietta'
p1445
VAA
p1446
sS'2a'
p1447
VIY
p1448
sS'authorisation'
p1449
VAO
p1450
sS'fense'
p1451
VF
sS'vatanen'
p1452
VV
sS'laxer'
p1453
VL
sS'exclusiveness'
p1454
VIH
p1455
sS'organises'
p1456
VAO
p1457
sS'366a'
p1458
VD
sS'organised'
p1459
VAO
p1460
sS'synchronised'
p1461
VS
sS'todo'
p1462
VT
sS'quelque'
p1463
VK
sS'meijer'
p1464
VM
sS'realising'
p1465
VR
sS'jesuitical'
p1466
VJH
p1467
sS'doddle'
p1468
VD
sS'reorganised'
p1469
VR
sS'reappearing'
p1470
VR
sS'wadden'
p1471
VW
sS'brovina'
p1472
VB
sS'beurre'
p1473
VB
sS'stigmatises'
p1474
VS
sS'tesiegel'
p1475
VT
sS'housebound'
p1476
VHH
p1477
sS'organising'
p1478
VAO
p1479
sS'ispa'
p1480
VAY
p1481
sS'baringdorf'
p1482
VB
sS'oligarchies'
p1483
VAA
p1484
sS'oisin'
p1485
VOY
p1486
sS'marfil'
p1487
VM
sS'ruination'
p1488
VR
sS'krarup'
p1489
VK
sS'shoah'
p1490
VSH
p1491
sS'responsibilisation'
p1492
VR
sS'ouvri'
p1493
VUW
p1494
sS'rhinotracheitis'
p1495
VR
sS'xenophobe'
p1496
VZ
sS'harbours'
p1497
VHH
p1498
sS'symbolised'
p1499
VS
sS'avec'
p1500
VAA
p1501
sS'lagendijk'
p1502
VL
sS'symbolises'
p1503
VS
sS'forevermore'
p1504
VF
sS'fruitfully'
p1505
VF
sS'overcautious'
p1506
VOW
p1507
sS'subsidise'
p1508
VS
sS'contre'
p1509
VK
sS'uncultured'
p1510
VAH
p1511
sS'mudflat'
p1512
VM
sS'geremek'
p1513
VJH
p1514
sS'schr'
p1515
VS
sS'zimeray'
p1516
VZ
sS'refilling'
p1517
VR
sS'cosv'
p1518
VK
sS'submissively'
p1519
VS
sS'aan'
p1520
VAA
p1521
sS'dans'
p1522
VD
sS'hoti'
p1523
VHH
p1524
sS'reorganisations'
p1525
VR
sS'wastage'
p1526
VW
sS'galit'
p1527
VG
sS'passant'
p1528
VP
sS'prefigure'
p1529
VP
sS'homeworking'
p1530
VHH
p1531
sS'awoken'
p1532
VAH
p1533
sS'reorganisation'
p1534
VR
sS'larcher'
p1535
VL
sS'kartellamt'
p1536
VK
sS'transboundary'
p1537
VT
sS'bovines'
p1538
VB
sS'parece'
p1539
VP
sS'k2'
p1540
VK
sS'clich'
p1541
VK
sS'instatement'
p1542
VIH
p1543
sS'efa'
p1544
VEH
p1545
sS'herri'
p1546
VHH
p1547
sS'efe'
p1548
VIY
p1549
sS'hotchpotch'
p1550
VHH
p1551
sS'corus'
p1552
VK
sS'diversed'
p1553
VD
sS'kratsa'
p1554
VK
sS'physico'
p1555
VF
sS'intergovernmentalisation'
p1556
VIH
p1557
sS'kg'
p1558
VG
sS'focussing'
p1559
VF
sS'penalisation'
p1560
VP
sS'km'
p1561
VK
sS'ltcm'
p1562
VL
sS'elucidating'
p1563
VAH
p1564
sS'retardants'
p1565
VR
sS'morillon'
p1566
VM
sS'expedients'
p1567
VIH
p1568
sS'vilamoura'
p1569
VV
sS'stepwise'
p1570
VS
sS'ecsc'
p1571
VEH
p1572
sS'betokens'
p1573
VB
sS'vigour'
p1574
VV
sS'criticising'
p1575
VK
sS'trialogue'
p1576
VT
sS'hiv'
p1577
VHH
p1578
sS'ingushetia'
p1579
VIH
p1580
sS'evregenis'
p1581
VEH
p1582
sS'harwich'
p1583
VHH
p1584
sS'reorganise'
p1585
VR
sS'ceecs'
p1586
VS
sS'unua'
p1587
VAH
p1588
sS'afsj'
p1589
VAE
p1590
sS'rensen'
p1591
VR
sS'sustainably'
p1592
VS
sS'irresolvable'
p1593
VIH
p1594
sS'carlotti'
p1595
VK
sS'fyrom'
p1596
VF
sS'corruptibility'
p1597
VK
sS'laan'
p1598
VL
sS'hexavalent'
p1599
VHH
p1600
sS'cherrypick'
p1601
VCH
p1602
sS'quecedo'
p1603
VK
sS'eurosceptics'
p1604
VY
sS'pvc'
p1605
VK
sS'conjuncture'
p1606
VK
sS'sem'
p1607
VS
sS'giorgos'
p1608
VJH
p1609
sS'sek'
p1610
VS
sS'insidiously'
p1611
VIH
p1612
sS'unacknowledged'
p1613
VAH
p1614
sS'timeworn'
p1615
VT
sS'backhandedness'
p1616
VB
sS'fundability'
p1617
VF
sS'rachidi'
p1618
VR
sS'verts'
p1619
VV
sS'morgantini'
p1620
VM
sS'baltas'
p1621
VB
sS'democratisation'
p1622
VD
sS'tajani'
p1623
VT
sS'hecke'
p1624
VHH
p1625
sS'rightholders'
p1626
VR
sS'pedagogic'
p1627
VP
sS'randzio'
p1628
VR
sS'tropospheric'
p1629
VT
sS'adr'
p1630
VAE
p1631
sS'windedness'
p1632
VW
sS'inquisitorial'
p1633
VIH
p1634
sS'weitergef'
p1635
VV
sS'busquin'
p1636
VB
sS'lacaci'
p1637
VL
sS'nikitin'
p1638
VN
sS'behoves'
p1639
VB
sS'retable'
p1640
VR
sS'tauern'
p1641
VT
sS'mg'
p1642
VEH
p1643
sS'viout'
p1644
VV
sS'subsidised'
p1645
VS
sS'olle'
p1646
VAA
p1647
sS'furanes'
p1648
VF
sS'fibres'
p1649
VF
sS'revolutionising'
p1650
VR
sS'pr'
p1651
VP
sS'pt'
p1652
VEY
p1653
sS'unavowed'
p1654
VAH
p1655
sS'brushstrokes'
p1656
VB
sS'frassoni'
p1657
VF
sS'cornillet'
p1658
VK
sS'favelas'
p1659
VF
sS'1950s'
p1660
VAH
p1661
sS'ultraliberal'
p1662
VAH
p1663
sS'elst'
p1664
VEH
p1665
sS'schori'
p1666
VS
sS'oberbayern'
p1667
VAA
p1668
sS'raouf'
p1669
VR
sS'mla'
p1670
VM
sS'laxness'
p1671
VL
sS'volksunie'
p1672
VV
sS'milie'
p1673
VM
sS'rigour'
p1674
VR
sS'governability'
p1675
VG
sS'mpla'
p1676
VM
sS'elucidation'
p1677
VAH
p1678
sS'marginalise'
p1679
VM
sS'rationalising'
p1680
VR
sS'dg1'
p1681
VD
sS'lacklustre'
p1682
VL
sS'welshman'
p1683
VW
sS'lvaro'
p1684
VL
sS'quadras'
p1685
VK
sS'centralisation'
p1686
VS
sS'constitutionalisation'
p1687
VK
sS'sightedness'
p1688
VS
sS'rambouillet'
p1689
VR
sS'scientifiques'
p1690
VS
sS'unestablished'
p1691
VAH
p1692
sS'liberalised'
p1693
VL
sS'fallowing'
p1694
VF
sS'marset'
p1695
VM
sS'padania'
p1696
VP
sS'fulfilment'
p1697
VF
sS'dgs'
p1698
VJH
p1699
sS'haarder'
p1700
VHH
p1701
sS'gsp'
p1702
VZ
sS'prioritised'
p1703
VP
sS'globalised'
p1704
VG
sS'forestation'
p1705
VF
sS'prioritises'
p1706
VP
sS'mobilising'
p1707
VM
sS'scaremongering'
p1708
VS
sS'gsm'
p1709
VJH
p1710
sS'fraisse'
p1711
VF
sS'feira'
p1712
VF
sS'typologies'
p1713
VT
sS'rechar'
p1714
VR
sS'alpes'
p1715
VAH
p1716
sS'ngigkeit'
p1717
VG
sS'nestl'
p1718
VN
sS'sheepmeat'
p1719
VSH
p1720
sS'madariaga'
p1721
VM
sS'calibre'
p1722
VK
sS'3and'
p1723
VAA
p1724
sS'47th'
p1725
VAH
p1726
sS'coastguards'
p1727
VK
sS'erikas'
p1728
VEH
p1729
sS'hauliers'
p1730
VHH
p1731
sS'ammokhostos'
p1732
VAE
p1733
sS'aggregation'
p1734
VAE
p1735
sS'rling'
p1736
VR
sS'monika'
p1737
VM
sS'cadou'
p1738
VK
sS'timetabling'
p1739
VT
sS'microcredit'
p1740
VM
sS'aridity'
p1741
VER
p1742
sS'harmonising'
p1743
VHH
p1744
sS'abattoirs'
p1745
VAH
p1746
sS'pirker'
p1747
VP
sS'eea'
p1748
VIY
p1749
sS'summarise'
p1750
VS
sS'channelled'
p1751
VCH
p1752
sS'uncompromised'
p1753
VAH
p1754
sS'wombs'
p1755
VW
sS'urba'
p1756
VER
p1757
sS'30s'
p1758
VAH
p1759
sS'metres'
p1760
VM
sS'representativeness'
p1761
VR
sS'b5'
p1762
VB
sS'b7'
p1763
VB
sS'b1'
p1764
VB
sS'b2'
p1765
VB
sS'publica'
p1766
VP
sS'30a'
p1767
VD
sS'suanzes'
p1768
VS
sS'sud'
p1769
VS
sS'begrudges'
p1770
VB
sS'tampere'
p1771
VT
sS'attac'
p1772
VEY
p1773
sS'morbihan'
p1774
VM
sS'proc'
p1775
VP
sS'faslane'
p1776
VF
sS'icrc'
p1777
VAY
p1778
sS'neutre'
p1779
VN
sS'interpretative'
p1780
VIH
p1781
sS'employability'
p1782
VEH
p1783
sS'br'
p1784
VB
sS'tisza'
p1785
VT
sS'analysing'
p1786
VAE
p1787
sS'megalomaniacs'
p1788
VM
sS'esterno'
p1789
VEH
p1790
sS'sukarnoputri'
p1791
VS
sS'cossutta'
p1792
VK
sS'wherefores'
p1793
VHH
p1794
sS'trittin'
p1795
VT
sS'whiteboard'
p1796
VHH
p1797
sS'ndez'
p1798
VN
sS'helpfulness'
p1799
VHH
p1800
sS'atxalandabaso'
p1801
VAE
p1802
sS'nder'
p1803
VN
sS'yobs'
p1804
VY
sS'akkuyu'
p1805
VAE
p1806
sS'circuitously'
p1807
VS
sS'elorza'
p1808
VEH
p1809
sS'legalise'
p1810
VL
sS'hudghton'
p1811
VHH
p1812
sS'papoutsis'
p1813
VP
sS'derogations'
p1814
VD
sS'plantin'
p1815
VP
sS'realisation'
p1816
VR
sS'visae'
p1817
VV
sS'parez'
p1818
VP
sS'maaten'
p1819
VM
sS'waffen'
p1820
VW
sS'lldc'
p1821
VS
sS'falun'
p1822
VF
sS'abovementioned'
p1823
VAH
p1824
sS'quetzalcoatl'
p1825
VK
sS'bazin'
p1826
VB
sS'holidaymakers'
p1827
VHH
p1828
sS'bluefin'
p1829
VB
sS'swiebel'
p1830
VS
sS'devolving'
p1831
VD
sS'elnosa'
p1832
VEH
p1833
sS'monnet'
p1834
VM
sS'jonckheer'
p1835
VHH
p1836
sS'ludford'
p1837
VL
sS'governo'
p1838
VG
sS'maximised'
p1839
VM
sS'svend'
p1840
VS
sS'hrkop'
p1841
VHH
p1842
sS'sixthly'
p1843
VS
sS'posidonia'
p1844
VP
sS'agronomic'
p1845
VAH
p1846
sS'practise'
p1847
VP
sS'cis'
p1848
VS
sS'erkki'
p1849
VER
p1850
sS'minamata'
p1851
VM
sS'cip'
p1852
VS
sS'nsch'
p1853
VN
sS'maximises'
p1854
VM
sS'uk'
p1855
VAH
p1856
sS'sapard'
p1857
VS
sS'prejudgements'
p1858
VP
sS'polarised'
p1859
VP
sS'euroworks'
p1860
VY
sS'scrapie'
p1861
VS
sS'kn'
p1862
VK
sS'weggen'
p1863
VW
sS'formalise'
p1864
VF
sS'nationalise'
p1865
VN
sS'bureaucratise'
p1866
VB
sS'exup'
p1867
VEH
p1868
sS'elles'
p1869
VEH
p1870
sS'samuli'
p1871
VS
sS'individualisation'
p1872
VIH
p1873
sS'multipliers'
p1874
VM
sS'eldr'
p1875
VEH
p1876
sS'priori'
p1877
VP
sS'computerised'
p1878
VK
sS'gra'
p1879
VG
sS'organise'
p1880
VAO
p1881
sS'pintassilgo'
p1882
VP
sS'berthing'
p1883
VB
sS'korhola'
p1884
VK
sS'practicalities'
p1885
VP
sS'galvanised'
p1886
VG
sS'suchil'
p1887
VS
sS'overladen'
p1888
VOW
p1889
sS'digressive'
p1890
VD
sS'overlong'
p1891
VOW
p1892
sS'holey'
p1893
VHH
p1894
sS'flautre'
p1895
VF
sS'casaca'
p1896
VK
sS'utilised'
p1897
VY
sS'neighbouring'
p1898
VN
sS'compounders'
p1899
VK
sS'unef'
p1900
VUW
p1901
sS'communautaire'
p1902
VK
sS'sclope'
p1903
VS
sS'edf'
p1904
VEH
p1905
sS'gr'
p1906
VG
sS'edd'
p1907
VEH
p1908
sS'denktash'
p1909
VD
sS'rivne'
p1910
VR
sS'cofinance'
p1911
VK
sS'ge'
p1912
VJH
p1913
sS'legitimising'
p1914
VL
sS'eurofederalist'
p1915
VY
sS'mollifying'
p1916
VM
sS'resourced'
p1917
VR
sS'blindingly'
p1918
VB
sS'plcs'
p1919
VP
sS'demilitarising'
p1920
VD
sS'onesta'
p1921
VAH
p1922
sS'g7'
p1923
VAH
p1924
sS'enslaves'
p1925
VEH
p1926
sS'spinelessness'
p1927
VS
sS'neighbourly'
p1928
VN
sS'revitalise'
p1929
VR
sS'vitorino'
p1930
VV
sS'g8'
p1931
VAH
p1932
sS'mitrovica'
p1933
VM
sS'materialise'
p1934
VM
sS'ruinously'
p1935
VR
sS'farrago'
p1936
VF
sS'insuperable'
p1937
VIH
p1938
sS'brovinas'
p1939
VB
sS'speroni'
p1940
VS
sS'leavers'
p1941
VL
sS'kinsmen'
p1942
VK
sS'depositories'
p1943
VD
sS'alia'
p1944
VAA
p1945
sS'bleiben'
p1946
VB
sS'materialised'
p1947
VM
sS'uen'
p1948
VY
sS'cfi'
p1949
VIY
p1950
sS'mortalities'
p1951
VM
sS'raninsy'
p1952
VR
sS'cofinancing'
p1953
VK
sS'croo'
p1954
VK
sS'barnier'
p1955
VB
sS'zu'
p1956
VZ
sS'kouchner'
p1957
VK
sS'cfp'
p1958
VEH
p1959
sS'infrastrucutres'
p1960
VIH
p1961
sS'ukip'
p1962
VY
sS'calorific'
p1963
VK
sS'coccidiostats'
p1964
VK
sS'kreissl'
p1965
VK
sS'stedt'
p1966
VS
sS'3b'
p1967
VB
sS'pristina'
p1968
VP
sS'implementable'
p1969
VIH
p1970
sS'flavourings'
p1971
VF
sS'scepticism'
p1972
VS
sS'transhipment'
p1973
VT
sS'50th'
p1974
VAH
p1975
sS'herritarrok'
p1976
VHH
p1977
sS'misdemeanours'
p1978
VM
sS'phonograms'
p1979
VF
sS'ambit'
p1980
VAE
p1981
sS'wiebenga'
p1982
VW
sS'lipietz'
p1983
VL
sS'haulier'
p1984
VHH
p1985
sS'lez'
p1986
VL
sS'commendably'
p1987
VK
sS'proscribing'
p1988
VP
sS'metre'
p1989
VM
sS'harmonisation'
p1990
VHH
p1991
sS'remits'
p1992
VR
sS'flavour'
p1993
VF
sS'victimised'
p1994
VV
sS'taxman'
p1995
VT
sS'backhanders'
p1996
VB
sS'138a'
p1997
VD
sS'stenmarck'
p1998
VS
sS'michiel'
p1999
VM
sS'kurti'
p2000
VK
sS'apm'
p2001
VAE
p2002
sS'inhumanities'
p2003
VIH
p2004
sS'consignments'
p2005
VK
sS'usd'
p2006
VAH
p2007
sS'feo'
p2008
VF
sS'mobilisation'
p2009
VM
sS'extractive'
p2010
VIH
p2011
sS'congratulates'
p2012
VK
sS'sceptics'
p2013
VS
sS'piqu'
p2014
VP
sS'eutrophication'
p2015
VY
sS'assessable'
p2016
VAH
p2017
sS'nassauer'
p2018
VN
sS'contravening'
p2019
VK
sS'iii'
p2020
VIY
p2021
sS'immuration'
p2022
VIH
p2023
sS'lannoye'
p2024
VL
sS'unrivalled'
p2025
VAH
p2026
sS'entreprises'
p2027
VAA
p2028
sS'fulfils'
p2029
VF
sS'transmissible'
p2030
VT
sS'flechard'
p2031
VF
sS'moluccans'
p2032
VM
sS'votre'
p2033
VV
sS'exonerations'
p2034
VIH
p2035
sS'sinti'
p2036
VS
sS'vireaid'
p2037
VV
sS'bonemeal'
p2038
VB
sS'prioritise'
p2039
VP
sS'pretexts'
p2040
VP
sS'marginalising'
p2041
VM
sS'optimised'
p2042
VAA
p2043
sS'summery'
p2044
VS
sS'parlous'
p2045
VP
sS'dimitrakopoulos'
p2046
VD
sS'timetabled'
p2047
VT
sS'timeframes'
p2048
VT
sS'verheugen'
p2049
VV
sS'tacs'
p2050
VT
sS'reinstallation'
p2051
VR
sS'dockyards'
p2052
VD
sS'javette'
p2053
VZH
p2054
sS'marpol'
p2055
VM
sS'glasshouses'
p2056
VG
sS'npt'
p2057
VEH
p2058
sS'ultraliberalism'
p2059
VAH
p2060
sS'kindermann'
p2061
VK
sS'sidelong'
p2062
VS
sS'adjectival'
p2063
VAH
p2064
sS'hydrogeological'
p2065
VHH
p2066
sS'favourites'
p2067
VF
sS'bipartite'
p2068
VB
sS'politicised'
p2069
VP
sS'europeanised'
p2070
VY
sS'saramago'
p2071
VS
sS'savoyard'
p2072
VS
sS'compostela'
p2073
VK
sS'offences'
p2074
VAH
p2075
sS'thyself'
p2076
VTH
p2077
sS'hrad'
p2078
VHH
p2079
sS'finalising'
p2080
VF
sS'll'
p2081
VL
sS'equalise'
p2082
VIY
p2083
sS'sinecure'
p2084
VS
sS'puerta'
p2085
VP
sS'eieck'
p2086
VAY
p2087
sS'communitised'
p2088
VK
sS'eur'
p2089
VER
p2090
sS'unacceptability'
p2091
VAH
p2092
sS'emphasised'
p2093
VEH
p2094
sS'spelt'
p2095
VS
sS'alimentarius'
p2096
VAE
p2097
sS'emphasises'
p2098
VEH
p2099
sS'stabilise'
p2100
VS
sS'codetermination'
p2101
VK
sS'boetticher'
p2102
VB
sS'kilometres'
p2103
VK
sS'expels'
p2104
VIH
p2105
sS'avocat'
p2106
VAE
p2107
sS'renationalise'
p2108
VR
sS'globalphobes'
p2109
VG
sS'sandb'
p2110
VS
sS'despots'
p2111
VD
sS'baulk'
p2112
VB
sS'outworking'
p2113
VAW
p2114
sS'tente'
p2115
VT
sS'casuistry'
p2116
VK
sS'sion'
p2117
VS
sS'gargani'
p2118
VG
sS'programmes'
p2119
VP
sS'ecofin'
p2120
VIH
p2121
sS'saviours'
p2122
VS
sS'scrapies'
p2123
VS
sS'multiannual'
p2124
VM
sS'liberalising'
p2125
VL
sS'favours'
p2126
VF
sS'siena'
p2127
VS
sS'cyanogen'
p2128
VS
sS'standardisation'
p2129
VS
sS'ece'
p2130
VEH
p2131
sS'ecb'
p2132
VEH
p2133
sS'piecyk'
p2134
VP
sS'undp'
p2135
VAH
p2136
sS'ecu'
p2137
VEH
p2138
sS'symbolise'
p2139
VS
sS'alchemists'
p2140
VAE
p2141
sS'zimmerling'
p2142
VZ
sS'equalisation'
p2143
VIY
p2144
sS'klagenfurt'
p2145
VK
sS'interinstitutional'
p2146
VIH
p2147
sS'externalisation'
p2148
VIH
p2149
sS'prioritisation'
p2150
VP
sS'modernising'
p2151
VM
sS'thessaloniki'
p2152
VTH
p2153
sS'clamour'
p2154
VK
sS'fertiliser'
p2155
VF
sS'maccormick'
p2156
VM
sS'savour'
p2157
VS
sS'emas'
p2158
VEH
p2159
sS'echr'
p2160
VEH
p2161
sS'demoralised'
p2162
VD
sS'ponderously'
p2163
VP
sS'unabating'
p2164
VAH
p2165
sS'lom'
p2166
VL
sS'jarzembowski'
p2167
VJH
p2168
sS'macrofinancial'
p2169
VM
sS'spillages'
p2170
VS
sS'joaqu'
p2171
VJH
p2172
sS'blinkered'
p2173
VB
sS'peijs'
p2174
VP
sS'pronk'
p2175
VP
sS'papayannakis'
p2176
VP
sS'anaemia'
p2177
VAE
p2178
sS'aquavit'
p2179
VAH
p2180
sS'moluccas'
p2181
VM
sS'masochists'
p2182
VM
sS'inuits'
p2183
VIH
p2184
sS'postgraduate'
p2185
VP
sS'apologise'
p2186
VAH
p2187
sS'folias'
p2188
VF
sS'udb'
p2189
VAH
p2190
sS'pradier'
p2191
VP
sS'romagna'
p2192
VR
sS'wppt'
p2193
VW
sS'150g'
p2194
VG
sS'labourers'
p2195
VL
sS'popularised'
p2196
VP
sS'ber'
p2197
VB
sS'duisenberg'
p2198
VD
sS'berthu'
p2199
VB
sS'labouring'
p2200
VL
sS'arousa'
p2201
VER
p2202
sS'orthomixomicrovirus'
p2203
VAO
p2204
sS'faim'
p2205
VF
sS'capitulating'
p2206
VK
sS'propuesta'
p2207
VP
sS'multipartite'
p2208
VM
sS'vlaamsblok'
p2209
VV
sS'recantations'
p2210
VR
sS'pretentiously'
p2211
VP
sS'iopcf'
p2212
VAY
p2213
sS'karamanou'
p2214
VK
sS'coresponsibility'
p2215
VK
sS'familiarise'
p2216
VF
sS'multifunctionality'
p2217
VM
sS'relativises'
p2218
VR
sS'bronislaw'
p2219
VB
sS'flagellation'
p2220
VF
sS'energise'
p2221
VEH
p2222
sS'formers'
p2223
VF
sS'instil'
p2224
VIH
p2225
sS'lutte'
p2226
VL
sS'haiders'
p2227
VHH
p2228
sS'salafranca'
p2229
VS
sS'seguro'
p2230
VS
sS'reconcilable'
p2231
VR
sS'noire'
p2232
VN
sS'wilful'
p2233
VW
sS'sceptical'
p2234
VS
sS'regionality'
p2235
VR
sS'authorisations'
p2236
VAO
p2237
sS'succour'
p2238
VS
sS'ngl'
p2239
VEH
p2240
sS'xviiith'
p2241
VK
sS'noiz'
p2242
VN
sS'vlaams'
p2243
VV
sS'loutish'
p2244
VL
sS'minimising'
p2245
VM
sS'finalised'
p2246
VF
sS'postulated'
p2247
VP
sS'democratising'
p2248
VD
sS'renationalisation'
p2249
VR
sS'tributyl'
p2250
VT
sS'manifestos'
p2251
VM
sS'tbt'
p2252
VT
sS'decentralisation'
p2253
VD
sS'regionalists'
p2254
VR
sS'ultraperipheral'
p2255
VAH
p2256
sS'unprejudiced'
p2257
VAH
p2258
sS'conglomerations'
p2259
VK
sS'exportation'
p2260
VEH
p2261
sS'transposition'
p2262
VT
sS'somport'
p2263
VS
sS'wilhelmshaven'
p2264
VW
sS'categorised'
p2265
VK
sS'gbp'
p2266
VB
sS'graa'
p2267
VG
sS'ohim'
p2268
VOW
p2269
sS'suominen'
p2270
VS
sS'irrefutably'
p2271
VIH
p2272
sS'monocultures'
p2273
VM
sS'langenhagen'
p2274
VL
sS'btf'
p2275
VB
sS'mercifulness'
p2276
VM
sS'despoiled'
p2277
VD
sS'shepherdstown'
p2278
VSH
p2279
sS'bedevilled'
p2280
VB
sS'diese'
p2281
VD
sS'thoughtlessness'
p2282
VTH
p2283
sS'bedfordshire'
p2284
VB
sS'responsibilise'
p2285
VR
sS'globalisation'
p2286
VG
sS'americanically'
p2287
VAH
p2288
sS'unseaworthy'
p2289
VAH
p2290
sS'combated'
p2291
VK
sS'ld'
p2292
VAH
p2293
sS'cymru'
p2294
VS
sS'eta'
p2295
VIY
p2296
sS'utilising'
p2297
VY
sS'avil'
p2298
VAE
p2299
sS'cl'
p2300
VK
sS'authorised'
p2301
VAO
p2302
sS'maliakos'
p2303
VM
sS'cf'
p2304
VIY
p2305
sS'ce'
p2306
VS
sS'hm3'
p2307
VAH
p2308
sS'vend'
p2309
VV
sS'juger'
p2310
VJH
p2311
sS'cr'
p2312
VK
sS'uck'
p2313
VAH
p2314
sS'regenerative'
p2315
VR
sS'authorises'
p2316
VAO
p2317
sS'codecisions'
p2318
VK
sS'bizarrely'
p2319
VB
sS'ecips'
p2320
VEH
p2321
sS'minimise'
p2322
VM
sS'externalising'
p2323
VIH
p2324
sS'otc'
p2325
VAO
p2326
sS'exploiters'
p2327
VIH
p2328
sS'neighbour'
p2329
VN
sS'patriotisms'
p2330
VP
sS'mouskouri'
p2331
VM
sS'subparagraph'
p2332
VS
sS'frameworks'
p2333
VF
sS'synergistically'
p2334
VS
sS'intranet'
p2335
VIH
p2336
sS'backbenchers'
p2337
VB
sS'caudron'
p2338
VK
sS'galeote'
p2339
VG
sS'retabled'
p2340
VR
sS'hobbyhorse'
p2341
VHH
p2342
sS'monopolised'
p2343
VM
sS'kosovan'
p2344
VK
sS'biannually'
p2345
VB
sS'anthroprogenic'
p2346
VAE
p2347
sS'termism'
p2348
VT
sS'chapeau'
p2349
VSH
p2350
sS'vp'
p2351
VV
sS'pedalling'
p2352
VP
sS'kosovar'
p2353
VK
sS'philoxenia'
p2354
VF
sS'situ'
p2355
VS
sS'avc'
p2356
VAE
p2357
sS'rendaire'
p2358
VR
sS'justiciable'
p2359
VJH
p2360
sS'voivodina'
p2361
VV
sS'codecision'
p2362
VK
sS'expediencies'
p2363
VIH
p2364
sS'fifthly'
p2365
VF
sS'brahim'
p2366
VB
sS'indivisibility'
p2367
VIH
p2368
sS'politicise'
p2369
VP
sS'garaud'
p2370
VG
sS'vilagarcia'
p2371
VV
sS'standardising'
p2372
VS
sS'metamorphosing'
p2373
VM
sS'realises'
p2374
VR
sS'giorgios'
p2375
VJH
p2376
sS'colour'
p2377
VK
sS'underspent'
p2378
VAH
p2379
sS'herinneringen'
p2380
VHH
p2381
sS'kuckelkorn'
p2382
VK
sS'realised'
p2383
VR
sS'abdications'
p2384
VAE
p2385
sS'juncker'
p2386
VJH
p2387
sS'poettering'
p2388
VP
sS'disrupters'
p2389
VD
sS'flexibilisation'
p2390
VF
sS'crunchie'
p2391
VK
sS'antisemitism'
p2392
VAE
p2393
sS'hypocritically'
p2394
VHH
p2395
sS'gmo'
p2396
VM
sS'wallstr'
p2397
VW
sS'bedingungen'
p2398
VB
sS'nter'
p2399
VN
sS'cushnahan'
p2400
VK
sS'optimising'
p2401
VAA
p2402
sS'weu'
p2403
VW
sS'uncompromisingly'
p2404
VAH
p2405
sS'assistito'
p2406
VAH
p2407
sS'thoughtlessly'
p2408
VTH
p2409
sS'normalise'
p2410
VN
sS'poggiolini'
p2411
VP
sS'meaningfulness'
p2412
VM
sS'gorostiaga'
p2413
VG
sS'marketeering'
p2414
VM
sS'supping'
p2415
VS
sS'dures'
p2416
VD
sS'realit'
p2417
VR
sS'minimised'
p2418
VM
sS'candu'
p2419
VK
sS'maghreb'
p2420
VM
sS'dutroux'
p2421
VD
sS'agusta'
p2422
VAA
p2423
sS'muscardini'
p2424
VM
sS'troposphere'
p2425
VT
sS'56th'
p2426
VAH
p2427
sS'itchen'
p2428
VIH
p2429
sS'thaci'
p2430
VTH
p2431
sS'abusively'
p2432
VAH
p2433
sS'blameworthy'
p2434
VB
sS'desama'
p2435
VD
sS'transposing'
p2436
VT
sS'crewing'
p2437
VK
sS'rapkay'
p2438
VR
sS'14th'
p2439
VAH
p2440
sS'esf'
p2441
VEH
p2442
sS'esc'
p2443
VEH
p2444
sS'fudges'
p2445
VF
sS'esa'
p2446
VIY
p2447
sS'alkartasuna'
p2448
VAE
p2449
sS'analysed'
p2450
VAE
p2451
sS'sarre'
p2452
VS
sS'piggledy'
p2453
VP
sS'viviane'
p2454
VV
sS'kosovars'
p2455
VK
sS'zootechnical'
p2456
VZ
sS'chocoholics'
p2457
VCH
p2458
sS'transitive'
p2459
VT
sS'mammon'
p2460
VM
sS'mcduck'
p2461
VM
sS'localised'
p2462
VL
sS'unfavourable'
p2463
VAH
p2464
sS'aquacultural'
p2465
VAE
p2466
sS'disgracefully'
p2467
VD
sS'unfavourably'
p2468
VAH
p2469
sS'endeavours'
p2470
VEH
p2471
sS'desertification'
p2472
VD
sS'interethnic'
p2473
VIH
p2474
sS'liikanen'
p2475
VL
sS'rothley'
p2476
VR
sS'unwished'
p2477
VAH
p2478
sS'posselt'
p2479
VP
sS'dispensaries'
p2480
VD
sS'gretab'
p2481
VG
sS'institutionalising'
p2482
VIH
p2483
sS'finalisation'
p2484
VF
sS'demonising'
p2485
VD
sS'hm'
p2486
VAH
p2487
sS'bridgeheads'
p2488
VB
sS'wuori'
p2489
VW
sS'detestable'
p2490
VD
sS'macedonians'
p2491
VM
sS'mistranslation'
p2492
VM
sS'destabilise'
p2493
VD
sS'democratise'
p2494
VD
sS'ini'
p2495
VIY
p2496
sS'intradermal'
p2497
VIH
p2498
sS'youthstart'
p2499
VY
sS'bartho'
p2500
VB
sS'postmen'
p2501
VP
sS'decourri'
p2502
VD
sS'disinheriting'
p2503
VD
sS'oau'
p2504
VOW
p2505
sS'impositions'
p2506
VIH
p2507
sS'latterly'
p2508
VL
sS'standardise'
p2509
VS
sS'destabilisation'
p2510
VD
sS'1kg'
p2511
VG
sS'belder'
p2512
VB
sS'equalising'
p2513
VIY
p2514
sS'cheque'
p2515
VCH
p2516
sS'disjunction'
p2517
VD
sS'galvanise'
p2518
VG
sS'entreat'
p2519
VEH
p2520
sS'trakatellis'
p2521
VT
sS'queir'
p2522
VK
s.