(dp1
S'schengen'
p2
VSH
p3
sS'brindisi'
p4
VB
sS'boilersuit'
p5
VB
sS'unice'
p6
VY
sS'geresta'
p7
VJH
p8
sS'collating'
p9
VK
sS'iuris'
p10
VY
sS'souladakis'
p11
VS
sS'batasuna'
p12
VB
sS'peripheries'
p13
VP
sS'veux'
p14
VV
sS'jeopardising'
p15
VJH
p16
sS'crisex'
p17
VK
sS'velzen'
p18
VV
sS'andalucia'
p19
VAE
p20
sS'characterises'
p21
VK
sS'parit'
p22
VP
sS'neighbours'
p23
VN
sS'brempt'
p24
VB
sS'characterised'
p25
VK
sS'categorisation'
p26
VK
sS'derogate'
p27
VD
sS'environnement'
p28
VEH
p29
sS'rashly'
p30
VR
sS'gligorov'
p31
VG
sS'diamantopoulou'
p32
VD
sS'saarc'
p33
VS
sS'jaca'
p34
VJH
p35
sS'achievability'
p36
VEY
p37
sS'murcia'
p38
VM
sS'subsidising'
p39
VS
sS'globalising'
p40
VG
sS'subprogrammes'
p41
VS
sS'markov'
p42
VM
sS'unauthorised'
p43
VAH
p44
sS'fogh'
p45
VF
sS'chev'
p46
VCH
p47
sS'interparliamentary'
p48
VIH
p49
sS'prising'
p50
VP
sS'capitalisation'
p51
VK
sS'ilisu'
p52
VIH
p53
sS'rouen'
p54
VR
sS'cantabrian'
p55
VK
sS'hundredfold'
p56
VHH
p57
sS'draftsperson'
p58
VD
sS'abogado'
p59
VAA
p60
sS'nen'
p61
VN
sS'faecal'
p62
VF
sS'milie'
p63
VM
sS'bandying'
p64
VB
sS'nea'
p65
VN
sS'alavanos'
p66
VAE
p67
sS'sittings'
p68
VS
sS'ner'
p69
VN
sS'ospar'
p70
VAA
p71
sS'watercourse'
p72
VW
sS'unmotivated'
p73
VAH
p74
sS'hemicycle'
p75
VHH
p76
sS'schierhuber'
p77
VSH
p78
sS'repugnance'
p79
VR
sS'ventilators'
p80
VV
sS'specialise'
p81
VS
sS'mep'
p82
VM
sS'mediagoguery'
p83
VM
sS'feedstuffs'
p84
VF
sS'antisemitic'
p85
VAE
p86
sS'chlorides'
p87
VK
sS'karit'
p88
VK
sS'yarmouth'
p89
VY
sS'scharping'
p90
VSH
p91
sS'oloron'
p92
VAA
p93
sS'ermua'
p94
VER
p95
sS'populaire'
p96
VP
sS'nulla'
p97
VN
sS'summarising'
p98
VS
sS'criticise'
p99
VK
sS'remedium'
p100
VR
sS'lldcs'
p101
VL
sS'sympathise'
p102
VS
sS'specialising'
p103
VS
sS'pontevedra'
p104
VP
sS'exceedance'
p105
VIH
p106
sS'cloven'
p107
VK
sS'rationalise'
p108
VR
sS'dalmau'
p109
VD
sS'eurojust'
p110
VY
sS'imperilling'
p111
VIH
p112
sS'sceptically'
p113
VS
sS'pomes'
p114
VP
sS'antidemocratic'
p115
VAE
p116
sS'nement'
p117
VN
sS'equalisation'
p118
VIY
p119
sS'oarsmen'
p120
VAO
p121
sS'enfopol'
p122
VEH
p123
sS'muss'
p124
VM
sS'resurfaces'
p125
VR
sS'stigmatise'
p126
VS
sS'equilateral'
p127
VEH
p128
sS'jeopardises'
p129
VJH
p130
sS'camre'
p131
VK
sS'civilisations'
p132
VS
sS'jeopardised'
p133
VJH
p134
sS'mp'
p135
VEH
p136
sS'radicalisation'
p137
VR
sS'quaestor'
p138
VK
sS'hayfork'
p139
VHH
p140
sS'envisaging'
p141
VEH
p142
sS'microcredits'
p143
VM
sS'teratogenicity'
p144
VT
sS'frescos'
p145
VF
sS'gats'
p146
VG
sS'margallo'
p147
VM
sS'hor'
p148
VHH
p149
sS'iiia'
p150
VIY
p151
sS'iiic'
p152
VAY
p153
sS'finalise'
p154
VF
sS'confederal'
p155
VK
sS'utilise'
p156
VY
sS'memoires'
p157
VM
sS'carinthia'
p158
VK
sS'underhand'
p159
VAH
p160
sS'publicised'
p161
VP
sS'marija'
p162
VM
sS'disassembly'
p163
VD
sS'undesired'
p164
VAH
p165
sS'endeavoured'
p166
VEH
p167
sS'rouses'
p168
VR
sS'ewc'
p169
VEH
p170
sS'syllabuses'
p171
VS
sS'parcours'
p172
VP
sS'materialise'
p173
VM
sS'sterilisation'
p174
VS
sS'mps'
p175
VM
sS'cascais'
p176
VK
sS'extents'
p177
VIH
p178
sS'europeanisation'
p179
VY
sS'fifg'
p180
VF
sS'priding'
p181
VP
sS'shipwrecked'
p182
VSH
p183
sS'telegrammatic'
p184
VT
sS'feedingstuff'
p185
VF
sS'galician'
p186
VG
sS'anweisungen'
p187
VAE
p188
sS'adige'
p189
VAE
p190
sS'incoherences'
p191
VIH
p192
sS'inadmissibility'
p193
VIH
p194
sS'literates'
p195
VL
sS'kirkhope'
p196
VK
sS'cle'
p197
VK
sS'abominations'
p198
VAH
p199
sS'encapsulates'
p200
VEH
p201
sS'carrefours'
p202
VK
sS'ftse'
p203
VEH
p204
sS'jackboot'
p205
VJH
p206
sS'centralising'
p207
VS
sS'reconverted'
p208
VR
sS'colourless'
p209
VK
sS'paronen'
p210
VP
sS'hatzidakis'
p211
VHH
p212
sS'hertfordshire'
p213
VHH
p214
sS'relaunching'
p215
VR
sS'mayoress'
p216
VM
sS'tuberculin'
p217
VT
sS'formalisation'
p218
VF
sS'souchet'
p219
VS
sS'rigour'
p220
VR
sS'regionalisation'
p221
VR
sS'privatisations'
p222
VP
sS'practising'
p223
VP
sS'extrajudicial'
p224
VIH
p225
sS'domicile'
p226
VD
sS'rt'
p227
VR
sS'rr'
p228
VR
sS'collaborates'
p229
VK
sS'recognising'
p230
VR
sS'ry'
p231
VR
sS'sintra'
p232
VS
sS'multicoloured'
p233
VM
sS'rg'
p234
VAA
p235
sS'unromantic'
p236
VAH
p237
sS'rc'
p238
VR
sS'sme'
p239
VS
sS'rh'
p240
VAA
p241
sS'communitisation'
p242
VK
sS'rk'
p243
VR
sS'obnova'
p244
VAH
p245
sS'higgledy'
p246
VHH
p247
sS'bertel'
p248
VB
sS'rutnet'
p249
VR
sS'mudflats'
p250
VM
sS'sichrovsky'
p251
VS
sS'r4'
p252
VAA
p253
sS'hollowness'
p254
VHH
p255
sS'hainaut'
p256
VHH
p257
sS'redrafts'
p258
VR
sS'att'
p259
VAE
p260
sS'iso'
p261
VIY
p262
sS'isn'
p263
VIH
p264
sS'1970s'
p265
VAH
p266
sS'benchmarking'
p267
VB
sS'favoured'
p268
VF
sS'popularise'
p269
VP
sS'officious'
p270
VAH
p271
sS'operability'
p272
VAA
p273
sS'laxer'
p274
VL
sS'underspends'
p275
VAH
p276
sS'movimento'
p277
VM
sS'lega'
p278
VL
sS'activators'
p279
VAE
p280
sS'vitoria'
p281
VV
sS'mamre'
p282
VM
sS'staes'
p283
VS
sS'decentralised'
p284
VD
sS'cabling'
p285
VK
sS'romanies'
p286
VR
sS'sidelining'
p287
VS
sS'a32'
p288
VEY
p289
sS'bjerregaard'
p290
VB
sS'17a'
p291
VD
sS'nh3'
p292
VEH
p293
sS'schroedter'
p294
VSH
p295
sS'entente'
p296
VEH
p297
sS'qmv'
p298
VK
sS'cisterna'
p299
VS
sS'fossilised'
p300
VF
sS'ghilardotti'
p301
VG
sS'whinging'
p302
VW
sS'modernisation'
p303
VM
sS'auctoritas'
p304
VAO
p305
sS'verts'
p306
VV
sS'administrated'
p307
VAH
p308
sS'myller'
p309
VM
sS'jeopardise'
p310
VJH
p311
sS'unhcr'
p312
VAH
p313
sS'fathomless'
p314
VF
sS'brominated'
p315
VB
sS'drogheda'
p316
VD
sS'esto'
p317
VEH
p318
sS'communitise'
p319
VK
sS'overstrained'
p320
VOW
p321
sS'sysmin'
p322
VS
sS'denkta'
p323
VD
sS'colourful'
p324
VK
sS'kfor'
p325
VK
sS'penalise'
p326
VP
sS'enshrining'
p327
VAH
p328
sS'omagh'
p329
VAH
p330
sS'guillemots'
p331
VG
sS'rationalisation'
p332
VR
sS'abb'
p333
VAE
p334
sS'lothar'
p335
VL
sS'abc'
p336
VAE
p337
sS'bse'
p338
VB
sS'ionising'
p339
VAY
p340
sS'untempted'
p341
VAH
p342
sS'mobilised'
p343
VM
sS'lacuna'
p344
VL
sS'ejido'
p345
VEY
p346
sS'floodtide'
p347
VF
sS'trivialisation'
p348
VT
sS'charterer'
p349
VCH
p350
sS'cynegetic'
p351
VS
sS'unassailability'
p352
VAH
p353
sS'stocktaking'
p354
VS
sS'discourteous'
p355
VD
sS'romagna'
p356
VR
sS'acquis'
p357
VAE
p358
sS'florenz'
p359
VF
sS'communiqu'
p360
VK
sS'ment'
p361
VM
sS'hrt'
p362
VHH
p363
sS'liberticidal'
p364
VL
sS'marinho'
p365
VM
sS'discretional'
p366
VD
sS'tsagaropoulou'
p367
VT
sS'quieres'
p368
VK
sS'ponnambalam'
p369
VP
sS'dm'
p370
VAH
p371
sS'dg'
p372
VJH
p373
sS'banotti'
p374
VB
sS'inelasticity'
p375
VIH
p376
sS'bradbourn'
p377
VB
sS'consorts'
p378
VK
sS'disequilibria'
p379
VD
sS'ispar'
p380
VAY
p381
sS'paedophiles'
p382
VP
sS'asturias'
p383
VAH
p384
sS'transhipped'
p385
VT
sS'ceyhun'
p386
VS
sS'ghettoisation'
p387
VG
sS'meps'
p388
VM
sS'ems'
p389
VEH
p390
sS'ardennes'
p391
VAA
p392
sS'flexibilising'
p393
VF
sS'offals'
p394
VAH
p395
sS'vandalised'
p396
VV
sS'middelhoek'
p397
VM
sS'1960s'
p398
VAH
p399
sS'stegrennan'
p400
VS
sS'helcom'
p401
VHH
p402
sS'supranationalism'
p403
VS
sS'co2'
p404
VK
sS'erhalten'
p405
VER
p406
sS'globalist'
p407
VG
sS'sakellariou'
p408
VS
sS'natura'
p409
VN
sS'liaise'
p410
VL
sS'geberlandes'
p411
VG
sS'visualise'
p412
VV
sS'inspectorates'
p413
VIH
p414
sS'auroi'
p415
VAO
p416
sS'mistimed'
p417
VM
sS'institutionalised'
p418
VIH
p419
sS'rapporteur'
p420
VR
sS'wto'
p421
VT
sS'civilised'
p422
VS
sS'pietrasanta'
p423
VP
sS'vallelersundi'
p424
VV
sS'sympathises'
p425
VS
sS'timescale'
p426
VT
sS'offloading'
p427
VAO
p428
sS'honouring'
p429
VAA
p430
sS'unapplied'
p431
VAH
p432
sS'2nd'
p433
VD
sS'minimised'
p434
VM
sS'godparent'
p435
VG
sS'rushailo'
p436
VR
sS'interrelations'
p437
VIH
p438
sS'levante'
p439
VL
sS'organisational'
p440
VAO
p441
sS'berenguer'
p442
VB
sS'recognises'
p443
VR
sS'frf'
p444
VF
sS'criticised'
p445
VK
sS'wisemen'
p446
VW
sS'recognised'
p447
VR
sS'josse'
p448
VJH
p449
sS'criticises'
p450
VK
sS'abuja'
p451
VAE
p452
sS'dynamically'
p453
VD
sS'25o'
p454
VN
sS'beastly'
p455
VB
sS'criminalised'
p456
VK
sS'bizonal'
p457
VB
sS'criminalises'
p458
VK
sS'europeanist'
p459
VY
sS'skilfully'
p460
VS
sS'gnp'
p461
VEH
p462
sS'organisers'
p463
VAO
p464
sS'marginalised'
p465
VM
sS'atlantique'
p466
VAE
p467
sS'demonised'
p468
VD
sS'viii'
p469
VV
sS'aeroplane'
p470
VEH
p471
sS'ix'
p472
VIH
p473
sS'persecutory'
p474
VP
sS'daladier'
p475
VD
sS'derisory'
p476
VD
sS'nationalrat'
p477
VN
sS'iv'
p478
VAY
p479
sS'ii'
p480
VAY
p481
sS'iccat'
p482
VIH
p483
sS'theato'
p484
VTH
p485
sS'impasses'
p486
VIH
p487
sS'phare'
p488
VF
sS'sterckx'
p489
VS
sS'autarkic'
p490
VAO
p491
sS'coastguard'
p492
VK
sS'plimsoll'
p493
VP
sS'authorise'
p494
VAO
p495
sS'sovereignties'
p496
VS
sS'urquiola'
p497
VER
p498
sS'cederschi'
p499
VS
sS'gorsel'
p500
VG
sS'imbues'
p501
VIH
p502
sS'continentalisation'
p503
VK
sS'ammokhostos'
p504
VAE
p505
sS'eusko'
p506
VY
sS'emphasise'
p507
VEH
p508
sS'devalues'
p509
VD
sS'nio'
p510
VN
sS'bolkestein'
p511
VB
sS'rogatory'
p512
VR
sS'mailshots'
p513
VM
sS'nationalisation'
p514
VN
sS'hadera'
p515
VHH
p516
sS'sperkhios'
p517
VS
sS'besque'
p518
VB
sS'centred'
p519
VS
sS'conciliations'
p520
VK
sS'paralysed'
p521
VP
sS'beavering'
p522
VB
sS'howitts'
p523
VHH
p524
sS'juridical'
p525
VJH
p526
sS'prioritising'
p527
VP
sS'crewed'
p528
VK
sS'elmar'
p529
VEH
p530
sS'harmonise'
p531
VHH
p532
sS'dogmas'
p533
VD
sS'yeu'
p534
VY
sS'dunams'
p535
VD
sS'biscay'
p536
VB
sS'europeanise'
p537
VY
sS'illipe'
p538
VIH
p539
sS'igal'
p540
VAY
p541
sS'5g'
p542
VG
sS'5a'
p543
VIY
p544
sS'5b'
p545
VB
sS'hedkvist'
p546
VHH
p547
sS'calvinists'
p548
VK
sS'sapar'
p549
VS
sS'kotka'
p550
VK
sS'silting'
p551
VS
sS'deckchairs'
p552
VD
sS'scrutinised'
p553
VS
sS'crudest'
p554
VK
sS'portuguesa'
p555
VP
sS'borr'
p556
VB
sS'wwf'
p557
VW
sS'evincing'
p558
VIY
p559
sS'polycentric'
p560
VP
sS'destabilising'
p561
VD
sS'cns'
p562
VS
sS'fascistic'
p563
VF
sS'unambitious'
p564
VAH
p565
sS'icg'
p566
VIH
p567
sS'honoured'
p568
VAA
p569
sS'ict'
p570
VIH
p571
sS'gollnisch'
p572
VG
sS'ecus'
p573
VIY
p574
sS'mollar'
p575
VM
sS'kandal'
p576
VK
sS'untiringly'
p577
VAH
p578
sS'untrammelled'
p579
VAH
p580
sS'eneko'
p581
VEH
p582
sS'collectivity'
p583
VK
sS'rationalisations'
p584
VR
sS'channelled'
p585
VCH
p586
sS'depopulated'
p587
VD
sS'coraz'
p588
VK
sS'indigestible'
p589
VIH
p590
sS'dineh'
p591
VD
sS'discourtesy'
p592
VD
sS'ppe'
p593
VP
sS'resourcing'
p594
VR
sS'nought'
p595
VN
sS'22a'
p596
VD
sS'ussr'
p597
VAH
p598
sS'1990s'
p599
VAH
p600
sS'multifunctional'
p601
VM
sS'alfanyurt'
p602
VAE
p603
sS'internalisation'
p604
VIH
p605
sS'abjectly'
p606
VAE
p607
sS'att3'
p608
VAE
p609
sS'noirmoutier'
p610
VN
sS'oomen'
p611
VOW
p612
sS'irreprehensible'
p613
VIH
p614
sS'quousque'
p615
VK
sS'rapex'
p616
VR
sS'comart'
p617
VK
sS'therefrom'
p618
VTH
p619
sS'foro'
p620
VF
sS'straggly'
p621
VS
sS'solidar'
p622
VS
sS'semiological'
p623
VS
sS'analyse'
p624
VAE
p625
sS'so2'
p626
VS
sS'transregional'
p627
VT
sS'canfranc'
p628
VK
sS'solas'
p629
VS
sS'heteronomous'
p630
VHH
p631
sS'charterers'
p632
VCH
p633
sS'individualised'
p634
VIH
p635
sS'centralist'
p636
VS
sS'lello'
p637
VL
sS'ecac'
p638
VIY
p639
sS'westendorp'
p640
VW
sS'centralise'
p641
VS
sS'erdf'
p642
VER
p643
sS'dreifuss'
p644
VD
sS'meagre'
p645
VM
sS'fuster'
p646
VF
sS'regurgitating'
p647
VR
sS'regularisation'
p648
VR
sS'liberalise'
p649
VL
sS'phytosanitary'
p650
VF
sS'ionian'
p651
VAY
p652
sS'merseyside'
p653
VM
sS'nl'
p654
VEH
p655
sS'zana'
p656
VZ
sS'nf'
p657
VEH
p658
sS'unsustainability'
p659
VAH
p660
sS'rspb'
p661
VR
sS'charente'
p662
VCH
p663
sS'mediaeval'
p664
VM
sS'jurti'
p665
VJH
p666
sS'babitsky'
p667
VB
sS'boumediene'
p668
VB
sS'vetches'
p669
VV
sS'functionalist'
p670
VF
sS'crystallised'
p671
VK
sS'ringholm'
p672
VR
sS'crystallise'
p673
VK
sS'stabex'
p674
VS
sS'aquacultures'
p675
VAE
p676
sS'roo'
p677
VR
sS'amiens'
p678
VEY
p679
sS'reformulating'
p680
VR
sS'tses'
p681
VT
sS'lethargically'
p682
VL
sS'swingeing'
p683
VS
sS'interrelatedness'
p684
VIH
p685
sS'rationalised'
p686
VR
sS'trepca'
p687
VT
sS'smes'
p688
VS
sS'ostreiculture'
p689
VAO
p690
sS'stagiaires'
p691
VS
sS'aspe'
p692
VAE
p693
sS'21st'
p694
VEH
p695
sS'bioplastic'
p696
VB
sS'summarises'
p697
VS
sS'taylorism'
p698
VT
sS'wilful'
p699
VW
sS'vez'
p700
VV
sS'silencers'
p701
VS
sS'summarised'
p702
VS
sS'euskal'
p703
VY
sS'caillaux'
p704
VK
sS'additionality'
p705
VAH
p706
sS'georgievski'
p707
VJH
p708
sS'mooted'
p709
VM
sS'decreeing'
p710
VD
sS'salsigne'
p711
VS
sS'mobilise'
p712
VM
sS'bicommunal'
p713
VB
sS'mintoff'
p714
VM
sS'magps'
p715
VM
sS'litigable'
p716
VL
sS'consorted'
p717
VK
sS'viceconte'
p718
VV
sS'bilges'
p719
VB
sS'militarisation'
p720
VM
sS'alicante'
p721
VAE
p722
sS'hler'
p723
VHH
p724
sS'procacci'
p725
VP
sS'petersberg'
p726
VP
sS'landaburu'
p727
VL
sS'generalisations'
p728
VJH
p729
sS'unmik'
p730
VAH
p731
sS'minimis'
p732
VM
sS'disassociating'
p733
VD
sS'unmic'
p734
VAH
p735
sS'tsatsos'
p736
VT
sS'libertatum'
p737
VL
sS'eutrophying'
p738
VY
sS'favour'
p739
VF
sS'hushkitted'
p740
VHH
p741
sS'hotrec'
p742
VHH
p743
sS'guererro'
p744
VG
sS'ldcs'
p745
VEY
p746
sS'exceedances'
p747
VIH
p748
sS'honour'
p749
VAA
p750
sS'topicality'
p751
VT
sS'plooij'
p752
VP
sS'suspensory'
p753
VS
sS'inflationist'
p754
VIH
p755
sS'maximising'
p756
VM
sS'scrapyards'
p757
VS
sS'bp'
p758
VB
sS'alyssandrakis'
p759
VAE
p760
sS'attwooll'
p761
VAH
p762
sS'humour'
p763
VHH
p764
sS'keenness'
p765
VK
sS'pressurised'
p766
VP
sS'queiro'
p767
VK
sS'europol'
p768
VY
sS'legitimise'
p769
VL
sS'fbi'
p770
VEH
p771
sS'loutish'
p772
VL
sS'ucits'
p773
VY
sS'antiracism'
p774
VAE
p775
sS'gulags'
p776
VG
sS'altener'
p777
VAO
p778
sS'runnymede'
p779
VR
sS'dimokratia'
p780
VD
sS'msf'
p781
VM
sS'andr'
p782
VAE
p783
sS'tyres'
p784
VT
sS'tsarist'
p785
VT
sS'chocolatl'
p786
VCH
p787
sS'bides'
p788
VB
sS'retrospection'
p789
VR
sS'maximise'
p790
VM
sS'upgradable'
p791
VAH
p792
sS'ovine'
p793
VOW
p794
sS'schoolmasterish'
p795
VS
sS'marginalisation'
p796
VM
sS'emphasising'
p797
VEH
p798
sS'modernised'
p799
VM
sS'ibm'
p800
VIH
p801
sS'socialisation'
p802
VS
sS'lieneman'
p803
VL
sS'cabeza'
p804
VK
sS'bureaux'
p805
VB
sS'indolence'
p806
VIH
p807
sS'usability'
p808
VY
sS'solbes'
p809
VS
sS'gillnets'
p810
VG
sS'1980s'
p811
VAH
p812
sS'detaching'
p813
VD
sS'wordings'
p814
VW
sS'14a'
p815
VD
sS'franconian'
p816
VF
sS'litre'
p817
VL
sS'conurbation'
p818
VK
sS'grosset'
p819
VG
sS'scornfully'
p820
VS
sS'ndez'
p821
VN
sS'naivety'
p822
VN
sS'hawksbill'
p823
VHH
p824
sS'helpfulness'
p825
VHH
p826
sS'cecaf'
p827
VS
sS'strictness'
p828
VS
sS'atxalandabaso'
p829
VAE
p830
sS'liberalisation'
p831
VL
sS'neighbourliness'
p832
VN
sS'imbeni'
p833
VIH
p834
sS'motorway'
p835
VM
sS'subrogate'
p836
VS
sS'teratogenic'
p837
VT
sS'pilate'
p838
VP
sS'atat'
p839
VEY
p840
sS'forestier'
p841
VF
sS'deve'
p842
VD
sS'ss'
p843
VEH
p844
sS'sp'
p845
VS
sS'sv'
p846
VEH
p847
sS'yobs'
p848
VY
sS'sj'
p849
VSH
p850
sS'neighbourhoods'
p851
VN
sS'paternalist'
p852
VP
sS'irresolute'
p853
VIH
p854
sS'rumoured'
p855
VR
sS'characterisations'
p856
VK
sS'councillor'
p857
VK
sS'blacklists'
p858
VB
sS'maij'
p859
VM
sS'nol'
p860
VN
sS'applecart'
p861
VAE
p862
sS'recommenced'
p863
VR
sS'illogically'
p864
VIH
p865
sS'widescale'
p866
VW
sS'contravened'
p867
VK
sS'polyaromatic'
p868
VP
sS'nox'
p869
VN
sS'ssel'
p870
VS
sS'contravenes'
p871
VK
sS'maladministration'
p872
VM
sS'nos'
p873
VN
sS'hulten'
p874
VHH
p875
sS'gemelli'
p876
VJH
p877
sS'civilisation'
p878
VS
sS'finuoli'
p879
VF
sS'realise'
p880
VR
sS'hydrological'
p881
VHH
p882
sS'teaux'
p883
VT
sS'terr'
p884
VT
sS'caudillos'
p885
VK
sS'retarders'
p886
VR
sS'kkinen'
p887
VK
sS'tannock'
p888
VT
sS'communitising'
p889
VK
sS'ec'
p890
VEH
p891
sS'ostracised'
p892
VAA
p893
sS'ez'
p894
VEH
p895
sS'eu'
p896
VY
sS'ep'
p897
VEH
p898
sS'tisza'
p899
VT
sS'adduced'
p900
VAH
p901
sS'olendorf'
p902
VAA
p903
sS'racan'
p904
VR
sS'ugarten'
p905
VY
sS'ieke'
p906
VIY
p907
sS'nihilo'
p908
VN
sS'busybody'
p909
VB
sS'retrodisplacement'
p910
VR
sS'reformulation'
p911
VR
sS'inessential'
p912
VAY
p913
sS'phthalates'
p914
VF
sS'penalising'
p915
VP
sS'aznar'
p916
VAE
p917
sS'schnellhardt'
p918
VSH
p919
sS'undesirably'
p920
VAH
p921
sS'apologising'
p922
VAH
p923
sS'industrialised'
p924
VIH
p925
sS'invalidity'
p926
VIH
p927
sS'feedingstuffs'
p928
VF
sS'rapporteurs'
p929
VR
sS'reductionist'
p930
VR
sS'reclassifications'
p931
VR
sS'xx'
p932
VK
sS'wallonian'
p933
VW
sS'ctes'
p934
VEH
p935
sS'dramatised'
p936
VD
sS'modernise'
p937
VM
sS'reorganising'
p938
VR
sS'1c'
p939
VS
sS'immortalised'
p940
VIH
p941
sS'democratique'
p942
VD
sS'clamouring'
p943
VK
sS'asymmetric'
p944
VEY
p945
sS'pnv'
p946
VAE
p947
sS'imputations'
p948
VIH
p949
sS'gastroenteritis'
p950
VG
sS'interreg'
p951
VIH
p952
sS'optimise'
p953
VAA
p954
sS'grammes'
p955
VG
sS'modelled'
p956
VM
sS'eurosceptic'
p957
VY
sS'interservice'
p958
VIH
p959
sS'standardised'
p960
VS
sS'scandalised'
p961
VS
sS'eudor'
p962
VOY
p963
sS'watercourses'
p964
VW
sS'sahel'
p965
VS
sS'trojer'
p966
VT
sS'demotivation'
p967
VD
sS'seabirds'
p968
VS
sS'unowned'
p969
VY
sS'barzanti'
p970
VB
sS'karelia'
p971
VK
sS'wct'
p972
VW
sS'leinster'
p973
VL
sS'55th'
p974
VAH
p975
sS'algarve'
p976
VAE
p977
sS'carrilho'
p978
VK
sS'authorising'
p979
VAO
p980
sS'euromed'
p981
VY
sS'errez'
p982
VEH
p983
sS'renan'
p984
VR
sS'transnationality'
p985
VT
sS'bourlanges'
p986
VB
sS'incentivise'
p987
VIH
p988
sS'iniquitous'
p989
VIH
p990
sS'padanian'
p991
VP
sS'folketing'
p992
VF
sS'tarek'
p993
VT
sS'methodologically'
p994
VM
sS'ksila'
p995
VS
sS'rfler'
p996
VR
sS'obiols'
p997
VOW
p998
sS'colegislator'
p999
VK
sS'antiracist'
p1000
VAE
p1001
sS'readmission'
p1002
VR
sS'rebalanced'
p1003
VR
sS'manoeuvre'
p1004
VM
sS'apulia'
p1005
VAE
p1006
sS'competitivity'
p1007
VK
sS'blace'
p1008
VB
sS'coherences'
p1009
VK
sS'godlike'
p1010
VG
sS'buttiglione'
p1011
VB
sS'gew'
p1012
VJH
p1013
sS'enumerations'
p1014
VAH
p1015
sS'remoter'
p1016
VR
sS'interregional'
p1017
VIH
p1018
sS'honours'
p1019
VAA
p1020
sS'sisyphus'
p1021
VS
sS'undemanding'
p1022
VAH
p1023
sS'hombach'
p1024
VHH
p1025
sS'segni'
p1026
VS
sS'cuxhaven'
p1027
VK
sS'diversities'
p1028
VD
sS'abano'
p1029
VAA
p1030
sS'cf'
p1031
VIY
p1032
sS'cordiale'
p1033
VK
sS'ence'
p1034
VEH
p1035
sS'jettons'
p1036
VJH
p1037
sS'malmstr'
p1038
VM
sS'obejct'
p1039
VAH
p1040
sS'guterres'
p1041
VG
sS'cavalese'
p1042
VK
sS'poena'
p1043
VP
sS'obfuscates'
p1044
VAA
p1045
sS'roure'
p1046
VR
sS'compliances'
p1047
VK
sS'harmonised'
p1048
VHH
p1049
sS'legale'
p1050
VL
sS'misinterpretations'
p1051
VM
sS'wallonia'
p1052
VW
sS'foisting'
p1053
VF
sS'minamata'
p1054
VM
sS'colours'
p1055
VK
sS'recognisable'
p1056
VR
sS'harmonises'
p1057
VHH
p1058
sS'recourses'
p1059
VR
sS'innovatively'
p1060
VIH
p1061
sS'conformism'
p1062
VK
sS'tacis'
p1063
VT
sS'tanio'
p1064
VT
sS'scrutinise'
p1065
VS
sS'militarised'
p1066
VM
sS'beguin'
p1067
VB
sS'marriageable'
p1068
VM
sS'prejudgements'
p1069
VP
sS'antisemite'
p1070
VAE
p1071
sS'cips'
p1072
VS
sS'jerrymandering'
p1073
VJH
p1074
sS'rivalled'
p1075
VR
sS'generalisation'
p1076
VJH
p1077
sS'shamefully'
p1078
VSH
p1079
sS'twix'
p1080
VT
sS'harbouring'
p1081
VHH
p1082
sS'roadworthiness'
p1083
VR
sS'promptness'
p1084
VP
sS'reworded'
p1085
VR
sS'delocalisation'
p1086
VD
sS'andalusians'
p1087
VAE
p1088
sS'millimetre'
p1089
VM
sS'practises'
p1090
VP
sS'korakas'
p1091
VK
sS'expediencies'
p1092
VIH
p1093
sS'cfsp'
p1094
VEH
p1095
sS'arta'
p1096
VAA
p1097
sS'sessional'
p1098
VS
sS'dadaist'
p1099
VD
sS'arte'
p1100
VAA
p1101
sS'dovetailing'
p1102
VD
sS'renewables'
p1103
VR
sS'spongiform'
p1104
VS
sS'6c'
p1105
VS
sS'derogation'
p1106
VD
sS'legislations'
p1107
VL
sS'paedophilia'
p1108
VP
sS'precariousness'
p1109
VP
sS'bmw'
p1110
VM
sS'specialised'
p1111
VS
sS'pretence'
p1112
VP
sS'eib'
p1113
VAY
p1114
sS'efterl'
p1115
VEH
p1116
sS'accessions'
p1117
VAH
p1118
sS'specialises'
p1119
VS
sS'europarl'
p1120
VY
sS'demilitarised'
p1121
VD
sS'stabilising'
p1122
VS
sS'caprine'
p1123
VK
sS'echternach'
p1124
VEH
p1125
sS'colonisation'
p1126
VK
sS'blak'
p1127
VB
sS'trentin'
p1128
VT
sS'quaestors'
p1129
VK
sS'litres'
p1130
VL
sS'clientelism'
p1131
VK
sS'turmes'
p1132
VT
sS'geostrategic'
p1133
VJH
p1134
sS'pau'
p1135
VP
sS'ultimum'
p1136
VAH
p1137
sS'reanimate'
p1138
VR
sS'enquiries'
p1139
VEH
p1140
sS'putin'
p1141
VP
sS'legitimises'
p1142
VL
sS'riis'
p1143
VR
sS'dogmatisers'
p1144
VD
sS'ronique'
p1145
VR
sS'despatched'
p1146
VD
sS'sahrawi'
p1147
VS
sS'uen'
p1148
VY
sS'ois'
p1149
VOY
p1150
sS'legitimised'
p1151
VL
sS'pures'
p1152
VP
sS'politicisation'
p1153
VP
sS'toadied'
p1154
VT
sS'biotopes'
p1155
VB
sS'nchez'
p1156
VN
sS'synthesises'
p1157
VS
sS'elles'
p1158
VEH
p1159
sS'taxifolia'
p1160
VT
sS'frontispiece'
p1161
VF
sS'rewording'
p1162
VR
sS'grappa'
p1163
VG
sS'renationalised'
p1164
VR
sS'gdp'
p1165
VJH
p1166
sS'anthropometric'
p1167
VAE
p1168
sS'comitology'
p1169
VK
sS'parez'
p1170
VP
sS'criminalise'
p1171
VK
sS'orthomixomicrovirus'
p1172
VAO
p1173
sS'fvo'
p1174
VF
sS'xxviiith'
p1175
VS
sS'euros'
p1176
VY
sS'preventatively'
p1177
VP
sS'favouring'
p1178
VF
sS'bowis'
p1179
VB
sS'legitimisation'
p1180
VL
sS'roissy'
p1181
VR
sS'countrywomen'
p1182
VK
sS'aeroplanes'
p1183
VEH
p1184
sS'culinaire'
p1185
VK
sS'offence'
p1186
VAH
p1187
sS'fallowing'
p1188
VF
sS'gra'
p1189
VG
sS'pse'
p1190
VS
sS'basest'
p1191
VB
sS'compartmentalisation'
p1192
VK
sS'legalised'
p1193
VL
sS'penalised'
p1194
VP
sS'directorates'
p1195
VD
sS'montesquieu'
p1196
VM
sS'institutionalisation'
p1197
VIH
p1198
sS'supernumeraries'
p1199
VS
sS'gratifyingly'
p1200
VG
sS'tajo'
p1201
VT
sS'fulfil'
p1202
VF
sS'putrefaction'
p1203
VP
sS'neutralised'
p1204
VN
sS'csfs'
p1205
VEH
p1206
sS'heartlands'
p1207
VHH
p1208
sS'cr'
p1209
VK
sS'complementarity'
p1210
VK
sS'competences'
p1211
VK
sS'dissociated'
p1212
VD
sS'centralised'
p1213
VS
sS'ddr'
p1214
VD
sS'defenceless'
p1215
VD
sS'unmovic'
p1216
VAH
p1217
sS'reorientated'
p1218
VR
sS'antipathetic'
p1219
VAE
p1220
sS'aglietta'
p1221
VAA
p1222
sS'angelilli'
p1223
VAA
p1224
sS'decentralise'
p1225
VD
sS'teleworking'
p1226
VT
sS'tdi'
p1227
VT
sS'ratifications'
p1228
VR
sS'valletta'
p1229
VV
sS'contrario'
p1230
VK
sS'carefulness'
p1231
VK
sS'pluralist'
p1232
VP
sS'forgetfulness'
p1233
VF
sS'rauf'
p1234
VR
sS'caulerpa'
p1235
VK
sS'turkistan'
p1236
VT
sS'diptych'
p1237
VD
sS'coincineration'
p1238
VK
sS'confederations'
p1239
VK
sS'acs'
p1240
VAE
p1241
sS'delimitation'
p1242
VD
sS'acp'
p1243
VAE
p1244
sS'albacete'
p1245
VAE
p1246
sS'guigou'
p1247
VG
sS'abattoir'
p1248
VAH
p1249
sS'garc'
p1250
VG
sS'derogating'
p1251
VD
sS'dipecho'
p1252
VD
sS'councillors'
p1253
VK
sS'dustbins'
p1254
VD
sS'stabilisation'
p1255
VS
sS'het'
p1256
VHH
p1257
sS'eulogises'
p1258
VY
sS'scrs'
p1259
VS
sS'decentralising'
p1260
VD
sS'endeavouring'
p1261
VEH
p1262
sS'loi'
p1263
VL
sS'namhong'
p1264
VN
sS'dislocates'
p1265
VD
sS'preachifying'
p1266
VP
sS'labelling'
p1267
VL
sS'practised'
p1268
VP
sS'discriminations'
p1269
VD
sS'oversteps'
p1270
VOW
p1271
sS'roseira'
p1272
VR
sS'ecemis'
p1273
VAH
p1274
sS'scorning'
p1275
VS
sS'censures'
p1276
VS
sS'conakry'
p1277
VK
sS'usted'
p1278
VAH
p1279
sS'universalist'
p1280
VY
sS'oostlander'
p1281
VUW
p1282
sS'300g'
p1283
VG
sS'buesa'
p1284
VB
sS'inflexibilities'
p1285
VIH
p1286
sS'organised'
p1287
VAO
p1288
sS'lvarez'
p1289
VL
sS'gonz'
p1290
VG
sS'subjugating'
p1291
VS
sS'twinnings'
p1292
VT
sS'schipol'
p1293
VS
sS'igc'
p1294
VAY
p1295
sS'stabilised'
p1296
VS
sS'poos'
p1297
VP
sS'otc'
p1298
VAO
p1299
sS'compounders'
p1300
VK
sS'deliveryman'
p1301
VD
sS'dishonour'
p1302
VD
sS'quelque'
p1303
VK
sS'a5'
p1304
VAE
p1305
sS'a4'
p1306
VAE
p1307
sS'recognise'
p1308
VR
sS'cermis'
p1309
VS
sS'redressed'
p1310
VR
sS'hieronymi'
p1311
VHH
p1312
sS'websites'
p1313
VW
sS'thors'
p1314
VDH
p1315
sS'opportunely'
p1316
VAA
p1317
sS'rezala'
p1318
VR
sS'coreper'
p1319
VK
sS'ivoire'
p1320
VIH
p1321
sS'sch'
p1322
VSH
p1323
sS'unrestrainable'
p1324
VAH
p1325
sS'levelling'
p1326
VL
sS'overexploiting'
p1327
VOW
p1328
sS'moratinos'
p1329
VM
sS'fiducia'
p1330
VF
sS'tain'
p1331
VT
sS'adana'
p1332
VAA
p1333
sS'1930s'
p1334
VAH
p1335
sS'driftnets'
p1336
VD
sS'tranquillity'
p1337
VT
sS'homepage'
p1338
VHH
p1339
sS'endogenous'
p1340
VEH
p1341
sS'subsidiarity'
p1342
VS
sS'weshalb'
p1343
VW
sS'apologised'
p1344
VAH
p1345
sS'regularise'
p1346
VR
sS'wavers'
p1347
VW
sS'icao'
p1348
VIY
p1349
sS'acidifying'
p1350
VAH
p1351
sS'alleanza'
p1352
VAA
p1353
sS'offal'
p1354
VAH
p1355
sS'24th'
p1356
VAH
p1357
sS'yrynen'
p1358
VY
sS'generalised'
p1359
VJH
p1360
sS'pigmeat'
p1361
VP
sS'katiforis'
p1362
VK
sS'17th'
p1363
VAH
p1364
sS'marvellous'
p1365
VM
sS'ageing'
p1366
VAH
p1367
sS'ge'
p1368
VJH
p1369
sS'rengie'
p1370
VR
sS'legalisation'
p1371
VL
sS'20th'
p1372
VAH
p1373
sS'overstretched'
p1374
VOW
p1375
sS'brucellosis'
p1376
VB
sS'communitarisation'
p1377
VK
sS'husbanded'
p1378
VHH
p1379
sS'honourably'
p1380
VAA
p1381
sS'denouncement'
p1382
VD
sS'reactivation'
p1383
VR
sS'timescales'
p1384
VT
sS'honourable'
p1385
VAA
p1386
sS'rato'
p1387
VR
sS'titley'
p1388
VT
sS'provan'
p1389
VP
sS'billposters'
p1390
VB
sS'teu'
p1391
VT
sS'paralyse'
p1392
VP
sS'theonas'
p1393
VTH
p1394
sS'ohne'
p1395
VOW
p1396
sS'sud'
p1397
VS
sS'sua'
p1398
VS
sS'abh'
p1399
VAE
p1400
sS'thorning'
p1401
VTH
p1402
sS'correcta'
p1403
VK
sS'abm'
p1404
VAE
p1405
sS'carpegna'
p1406
VK
sS'reziproken'
p1407
VR
sS'passiveness'
p1408
VP
sS'vall'
p1409
VV
sS'rgensen'
p1410
VR
sS'seiten'
p1411
VS
sS'favourably'
p1412
VF
sS'behaviour'
p1413
VB
sS'prescriptive'
p1414
VP
sS'fratricidal'
p1415
VF
sS'encephalopathies'
p1416
VEH
p1417
sS'emancipatory'
p1418
VAH
p1419
sS'eurodac'
p1420
VY
sS'osce'
p1421
VAO
p1422
sS'wogau'
p1423
VW
sS'50s'
p1424
VAH
p1425
sS'resourced'
p1426
VR
sS'hilfen'
p1427
VHH
p1428
sS'euratom'
p1429
VY
sS'rugovo'
p1430
VR
sS'utilisation'
p1431
VY
sS'collation'
p1432
VK
sS'2000s'
p1433
VAH
p1434
sS'vit'
p1435
VV
sS'tesauro'
p1436
VT
sS'executable'
p1437
VEH
p1438
sS'intersectoral'
p1439
VIH
p1440
sS'wijkman'
p1441
VW
sS'oecd'
p1442
VOW
p1443
sS'budgetisation'
p1444
VB
sS'doubtlessly'
p1445
VD
sS'voggenhuber'
p1446
VV
sS'underprivileged'
p1447
VAH
p1448
sS'demining'
p1449
VD
sS'auvergne'
p1450
VOW
p1451
sS'uncomprehending'
p1452
VAH
p1453
sS'situ'
p1454
VS
sS'acheneau'
p1455
VAH
p1456
sS'cofinanced'
p1457
VK
sS'aspirational'
p1458
VAE
p1459
sS'kla'
p1460
VK
sS'subsonic'
p1461
VS
sS'klm'
p1462
VK
sS'sociale'
p1463
VS
sS'revitalising'
p1464
VR
sS'g7'
p1465
VAH
p1466
sS'subsidisation'
p1467
VS
sS'kitzsteinhorn'
p1468
VK
sS'infectivity'
p1469
VIH
p1470
sS'dubiously'
p1471
VD
sS'publicise'
p1472
VP
sS'eaggf'
p1473
VIY
p1474
sS'casaca'
p1475
VK
sS'csf'
p1476
VEH
p1477
sS'unsystematically'
p1478
VAH
p1479
sS'refoulement'
p1480
VR
sS'csu'
p1481
VS
sS'lancker'
p1482
VL
sS'ssen'
p1483
VS
sS'rebalance'
p1484
VR
sS'fp'
p1485
VF
sS'fr'
p1486
VF
sS'inconceivably'
p1487
VIH
p1488
sS'limpopo'
p1489
VL
sS'ff'
p1490
VF
sS'pharmaceutiques'
p1491
VF
sS'conditio'
p1492
VK
sS'misnamed'
p1493
VM
sS'remodelled'
p1494
VR
sS'neuwerk'
p1495
VN
sS'misanthropic'
p1496
VM
sS'essere'
p1497
VEH
p1498
sS'unreservedly'
p1499
VAH
p1500
sS'lepos'
p1501
VL
sS'skilful'
p1502
VS
sS'isd'
p1503
VAY
p1504
sS'sebasti'
p1505
VS
sS'itl'
p1506
VIH
p1507
sS'traceability'
p1508
VT
sS'khmelnitsky'
p1509
VK
sS'blokland'
p1510
VB
sS'uctis'
p1511
VAH
p1512
sS'ruijten'
p1513
VR
sS'roadworthy'
p1514
VR
sS'ffh'
p1515
VF
sS'telluric'
p1516
VT
sS'factortame'
p1517
VF
sS'flimsier'
p1518
VF
sS'menceau'
p1519
VM
sS'labours'
p1520
VL
sS'unpolluted'
p1521
VAH
p1522
sS'mainstreamed'
p1523
VM
sS'secondment'
p1524
VS
sS'bendit'
p1525
VB
sS'straitjacketed'
p1526
VS
sS'wiliness'
p1527
VW
sS'forbear'
p1528
VF
sS'gmos'
p1529
VM
sS'reordered'
p1530
VR
sS'ceo'
p1531
VS
sS'cen'
p1532
VS
sS'cem'
p1533
VS
sS'impostures'
p1534
VIH
p1535
sS'addenda'
p1536
VAH
p1537
sS'huhne'
p1538
VHH
p1539
sS'ortuondo'
p1540
VAO
p1541
sS'americanisation'
p1542
VAH
p1543
sS'cercas'
p1544
VS
sS'2a'
p1545
VIY
p1546
sS'authorisation'
p1547
VAO
p1548
sS'vatanen'
p1549
VV
sS'wasn'
p1550
VW
sS'exclusiveness'
p1551
VIH
p1552
sS'organises'
p1553
VAO
p1554
sS'366a'
p1555
VD
sS'criminalisation'
p1556
VK
sS'synchronised'
p1557
VS
sS'todo'
p1558
VT
sS'shamefaced'
p1559
VSH
p1560
sS'meijer'
p1561
VM
sS'realising'
p1562
VR
sS'jesuitical'
p1563
VJH
p1564
sS'abdications'
p1565
VAE
p1566
sS'doddle'
p1567
VD
sS'reorganised'
p1568
VR
sS'leavers'
p1569
VL
sS'wadden'
p1570
VW
sS'brovina'
p1571
VB
sS'beurre'
p1572
VB
sS'stigmatises'
p1573
VS
sS'tesiegel'
p1574
VT
sS'housebound'
p1575
VHH
p1576
sS'organising'
p1577
VAO
p1578
sS'ispa'
p1579
VAY
p1580
sS'baringdorf'
p1581
VB
sS'lavarra'
p1582
VL
sS'oligarchies'
p1583
VAA
p1584
sS'oisin'
p1585
VOY
p1586
sS'marfil'
p1587
VM
sS'ruination'
p1588
VR
sS'krarup'
p1589
VK
sS'shoah'
p1590
VSH
p1591
sS'responsibilisation'
p1592
VR
sS'scandalously'
p1593
VS
sS'rhinotracheitis'
p1594
VR
sS'xenophobe'
p1595
VZ
sS'harbours'
p1596
VHH
p1597
sS'symbolised'
p1598
VS
sS'avec'
p1599
VAA
p1600
sS'lagendijk'
p1601
VL
sS'symbolises'
p1602
VS
sS'forevermore'
p1603
VF
sS'fruitfully'
p1604
VF
sS'overcautious'
p1605
VOW
p1606
sS'subsidise'
p1607
VS
sS'contre'
p1608
VK
sS'uncultured'
p1609
VAH
p1610
sS'mudflat'
p1611
VM
sS'geremek'
p1612
VJH
p1613
sS'standardising'
p1614
VS
sS'zimeray'
p1615
VZ
sS'refilling'
p1616
VR
sS'cosv'
p1617
VK
sS'submissively'
p1618
VS
sS'aan'
p1619
VAA
p1620
sS'dans'
p1621
VD
sS'hoti'
p1622
VHH
p1623
sS'reorganisations'
p1624
VR
sS'wastage'
p1625
VW
sS'galit'
p1626
VG
sS'pluri'
p1627
VP
sS'passant'
p1628
VP
sS'prefigure'
p1629
VP
sS'homeworking'
p1630
VHH
p1631
sS'awoken'
p1632
VAH
p1633
sS'reorganisation'
p1634
VR
sS'larcher'
p1635
VL
sS'kartellamt'
p1636
VK
sS'imf'
p1637
VIH
p1638
sS'rechar'
p1639
VR
sS'bovines'
p1640
VB
sS'parece'
p1641
VP
sS'k2'
p1642
VK
sS'cfp'
p1643
VEH
p1644
sS'instatement'
p1645
VIH
p1646
sS'efa'
p1647
VEH
p1648
sS'herri'
p1649
VHH
p1650
sS'efe'
p1651
VIY
p1652
sS'hotchpotch'
p1653
VHH
p1654
sS'corus'
p1655
VK
sS'diversed'
p1656
VD
sS'kratsa'
p1657
VK
sS'privatised'
p1658
VP
sS'physico'
p1659
VF
sS'ludford'
p1660
VL
sS'kg'
p1661
VG
sS'focussing'
p1662
VF
sS'penalisation'
p1663
VP
sS'km'
p1664
VK
sS'ltcm'
p1665
VL
sS'elucidating'
p1666
VAH
p1667
sS'retardants'
p1668
VR
sS'morillon'
p1669
VM
sS'expedients'
p1670
VIH
p1671
sS'vilamoura'
p1672
VV
sS'stepwise'
p1673
VS
sS'ecsc'
p1674
VEH
p1675
sS'betokens'
p1676
VB
sS'criticising'
p1677
VK
sS'trialogue'
p1678
VT
sS'hiv'
p1679
VHH
p1680
sS'ingushetia'
p1681
VIH
p1682
sS'evregenis'
p1683
VEH
p1684
sS'harwich'
p1685
VHH
p1686
sS'reorganise'
p1687
VR
sS'ceecs'
p1688
VS
sS'unua'
p1689
VAH
p1690
sS'afsj'
p1691
VAE
p1692
sS'rensen'
p1693
VR
sS'sustainably'
p1694
VS
sS'overburdening'
p1695
VOW
p1696
sS'irresolvable'
p1697
VIH
p1698
sS'carlotti'
p1699
VK
sS'fyrom'
p1700
VF
sS'flexibilisation'
p1701
VF
sS'laan'
p1702
VL
sS'hexavalent'
p1703
VHH
p1704
sS'bedingungen'
p1705
VB
sS'cherrypick'
p1706
VCH
p1707
sS'quecedo'
p1708
VK
sS'eurosceptics'
p1709
VY
sS'pvc'
p1710
VK
sS'conjuncture'
p1711
VK
sS'sem'
p1712
VS
sS'giorgos'
p1713
VJH
p1714
sS'sek'
p1715
VS
sS'insidiously'
p1716
VIH
p1717
sS'unacknowledged'
p1718
VAH
p1719
sS'timeworn'
p1720
VT
sS'backhandedness'
p1721
VB
sS'fundability'
p1722
VF
sS'rachidi'
p1723
VR
sS'speediness'
p1724
VS
sS'morgantini'
p1725
VM
sS'baltas'
p1726
VB
sS'democratisation'
p1727
VD
sS'misdemeanours'
p1728
VM
sS'hecke'
p1729
VHH
p1730
sS'rightholders'
p1731
VR
sS'pedagogic'
p1732
VP
sS'randzio'
p1733
VR
sS'tropospheric'
p1734
VT
sS'gmo'
p1735
VM
sS'windedness'
p1736
VW
sS'xenophobes'
p1737
VZ
sS'inquisitorial'
p1738
VIH
p1739
sS'intergovernmentalisation'
p1740
VIH
p1741
sS'busquin'
p1742
VB
sS'lacaci'
p1743
VL
sS'nikitin'
p1744
VN
sS'behoves'
p1745
VB
sS'birdal'
p1746
VB
sS'retable'
p1747
VR
sS'tauern'
p1748
VT
sS'mg'
p1749
VEH
p1750
sS'viout'
p1751
VV
sS'subsidised'
p1752
VS
sS'olle'
p1753
VAA
p1754
sS'furanes'
p1755
VF
sS'fibres'
p1756
VF
sS'revolutionising'
p1757
VR
sS'publicising'
p1758
VP
sS'pr'
p1759
VP
sS'pt'
p1760
VEY
p1761
sS'glavany'
p1762
VG
sS'unavowed'
p1763
VAH
p1764
sS'requisitioning'
p1765
VR
sS'brushstrokes'
p1766
VB
sS'frassoni'
p1767
VF
sS'cornillet'
p1768
VK
sS'tindouf'
p1769
VT
sS'favelas'
p1770
VF
sS'1950s'
p1771
VAH
p1772
sS'ultraliberal'
p1773
VAH
p1774
sS'elst'
p1775
VEH
p1776
sS'schori'
p1777
VS
sS'oberbayern'
p1778
VAA
p1779
sS'raouf'
p1780
VR
sS'mla'
p1781
VM
sS'laxness'
p1782
VL
sS'volksunie'
p1783
VV
sS'iucn'
p1784
VIY
p1785
sS'fense'
p1786
VF
sS'governability'
p1787
VG
sS'slobo'
p1788
VS
sS'mpla'
p1789
VM
sS'elucidation'
p1790
VAH
p1791
sS'marginalise'
p1792
VM
sS'rationalising'
p1793
VR
sS'dg1'
p1794
VD
sS'lacklustre'
p1795
VL
sS'welshman'
p1796
VW
sS'lvaro'
p1797
VL
sS'quadras'
p1798
VK
sS'centralisation'
p1799
VS
sS'hushkits'
p1800
VHH
p1801
sS'constitutionalisation'
p1802
VK
sS'thoughtlessly'
p1803
VTH
p1804
sS'sightedness'
p1805
VS
sS'rambouillet'
p1806
VR
sS'scientifiques'
p1807
VS
sS'remits'
p1808
VR
sS'liberalised'
p1809
VL
sS'liba'
p1810
VL
sS'marset'
p1811
VM
sS'padania'
p1812
VP
sS'fulfilment'
p1813
VF
sS'dgs'
p1814
VJH
p1815
sS'haarder'
p1816
VHH
p1817
sS'gsp'
p1818
VZ
sS'prioritised'
p1819
VP
sS'globalised'
p1820
VG
sS'forestation'
p1821
VF
sS'prioritises'
p1822
VP
sS'mobilising'
p1823
VM
sS'scaremongering'
p1824
VS
sS'gsm'
p1825
VJH
p1826
sS'fraisse'
p1827
VF
sS'feira'
p1828
VF
sS'typologies'
p1829
VT
sS'transboundary'
p1830
VT
sS'overflown'
p1831
VOW
p1832
sS'alpes'
p1833
VAH
p1834
sS'ngigkeit'
p1835
VG
sS'nestl'
p1836
VN
sS'sheepmeat'
p1837
VSH
p1838
sS'dures'
p1839
VD
sS'calibre'
p1840
VK
sS'3and'
p1841
VAA
p1842
sS'47th'
p1843
VAH
p1844
sS'coastguards'
p1845
VK
sS'erikas'
p1846
VEH
p1847
sS'hauliers'
p1848
VHH
p1849
sS'characterise'
p1850
VK
sS'aggregation'
p1851
VAE
p1852
sS'rling'
p1853
VR
sS'monika'
p1854
VM
sS'barricading'
p1855
VB
sS'cadou'
p1856
VK
sS'timetabling'
p1857
VT
sS'microcredit'
p1858
VM
sS'aridity'
p1859
VER
p1860
sS'harmonising'
p1861
VHH
p1862
sS'abattoirs'
p1863
VAH
p1864
sS'eurojus'
p1865
VY
sS'pirker'
p1866
VP
sS'eea'
p1867
VIY
p1868
sS'summarise'
p1869
VS
sS'eec'
p1870
VIY
p1871
sS'uncompromised'
p1872
VAH
p1873
sS'wombs'
p1874
VW
sS'urba'
p1875
VER
p1876
sS'30s'
p1877
VAH
p1878
sS'metres'
p1879
VM
sS'representativeness'
p1880
VR
sS'b5'
p1881
VB
sS'hectolitres'
p1882
VHH
p1883
sS'b1'
p1884
VB
sS'b2'
p1885
VB
sS'publica'
p1886
VP
sS'30a'
p1887
VD
sS'suanzes'
p1888
VS
sS'manisco'
p1889
VM
sS'begrudges'
p1890
VB
sS'tampere'
p1891
VT
sS'attac'
p1892
VEY
p1893
sS'morbihan'
p1894
VM
sS'proc'
p1895
VP
sS'dejas'
p1896
VD
sS'faslane'
p1897
VF
sS'degassing'
p1898
VD
sS'icrc'
p1899
VAY
p1900
sS'bn'
p1901
VB
sS'neutre'
p1902
VN
sS'interpretative'
p1903
VIH
p1904
sS'employability'
p1905
VEH
p1906
sS'br'
p1907
VB
sS'analysing'
p1908
VAE
p1909
sS'minurso'
p1910
VM
sS'uncompromisingly'
p1911
VAH
p1912
sS'megalomaniacs'
p1913
VM
sS'esterno'
p1914
VEH
p1915
sS'sukarnoputri'
p1916
VS
sS'cossutta'
p1917
VK
sS'wherefores'
p1918
VHH
p1919
sS'trittin'
p1920
VT
sS'whiteboard'
p1921
VHH
p1922
sS'irrigates'
p1923
VIH
p1924
sS'repulsion'
p1925
VR
sS'unsorted'
p1926
VAH
p1927
sS'nder'
p1928
VN
sS'idc'
p1929
VAY
p1930
sS'akkuyu'
p1931
VAE
p1932
sS'56th'
p1933
VAH
p1934
sS'elorza'
p1935
VEH
p1936
sS'favourable'
p1937
VF
sS'legalise'
p1938
VL
sS'hudghton'
p1939
VHH
p1940
sS'papoutsis'
p1941
VP
sS'derogations'
p1942
VD
sS'lothringen'
p1943
VL
sS'plantin'
p1944
VP
sS'realisation'
p1945
VR
sS'visae'
p1946
VV
sS'vigour'
p1947
VV
sS'maaten'
p1948
VM
sS'waffen'
p1949
VW
sS'lldc'
p1950
VS
sS'falun'
p1951
VF
sS'abovementioned'
p1952
VAH
p1953
sS'quetzalcoatl'
p1954
VK
sS'bazin'
p1955
VB
sS'pangolin'
p1956
VP
sS'holidaymakers'
p1957
VHH
p1958
sS'bluefin'
p1959
VB
sS'swiebel'
p1960
VS
sS'devolving'
p1961
VD
sS'elnosa'
p1962
VEH
p1963
sS'monnet'
p1964
VM
sS'jonckheer'
p1965
VHH
p1966
sS'subjectively'
p1967
VS
sS'governo'
p1968
VG
sS'maximised'
p1969
VM
sS'svend'
p1970
VS
sS'hrkop'
p1971
VHH
p1972
sS'sixthly'
p1973
VS
sS'posidonia'
p1974
VP
sS'agronomic'
p1975
VAH
p1976
sS'cis'
p1977
VS
sS'erkki'
p1978
VER
p1979
sS'feasibilities'
p1980
VF
sS'cip'
p1981
VS
sS'nsch'
p1982
VN
sS'maximises'
p1983
VM
sS'uk'
p1984
VAH
p1985
sS'sapard'
p1986
VS
sS'rostock'
p1987
VR
sS'polarised'
p1988
VP
sS'escb'
p1989
VEH
p1990
sS'euroworks'
p1991
VY
sS'scrapie'
p1992
VS
sS'kn'
p1993
VK
sS'weggen'
p1994
VW
sS'formalise'
p1995
VF
sS'nationalise'
p1996
VN
sS'bureaucratise'
p1997
VB
sS'exup'
p1998
VEH
p1999
sS'codex'
p2000
VK
sS'samuli'
p2001
VS
sS'individualisation'
p2002
VIH
p2003
sS'multipliers'
p2004
VM
sS'eldr'
p2005
VEH
p2006
sS'priori'
p2007
VP
sS'computerised'
p2008
VK
sS'voinet'
p2009
VV
sS'organise'
p2010
VAO
p2011
sS'eurosystem'
p2012
VY
sS'pintassilgo'
p2013
VP
sS'berthing'
p2014
VB
sS'korhola'
p2015
VK
sS'practicalities'
p2016
VP
sS'weitergef'
p2017
VV
sS'galvanised'
p2018
VG
sS'suchil'
p2019
VS
sS'overladen'
p2020
VOW
p2021
sS'digressive'
p2022
VD
sS'overlong'
p2023
VOW
p2024
sS'holey'
p2025
VHH
p2026
sS'flautre'
p2027
VF
sS'svc'
p2028
VS
sS'superstate'
p2029
VS
sS'utilised'
p2030
VY
sS'neighbouring'
p2031
VN
sS'superannuated'
p2032
VS
sS'unef'
p2033
VUW
p2034
sS'communautaire'
p2035
VK
sS'sclope'
p2036
VS
sS'edf'
p2037
VEH
p2038
sS'gr'
p2039
VG
sS'edd'
p2040
VEH
p2041
sS'denktash'
p2042
VD
sS'rivne'
p2043
VR
sS'cofinance'
p2044
VK
sS'minore'
p2045
VM
sS'conditionalities'
p2046
VK
sS'legitimising'
p2047
VL
sS'eurofederalist'
p2048
VY
sS'mollifying'
p2049
VM
sS'renunciations'
p2050
VR
sS'blindingly'
p2051
VB
sS'vetch'
p2052
VV
sS'plcs'
p2053
VP
sS'demilitarising'
p2054
VD
sS'onesta'
p2055
VAH
p2056
sS'stregrennan'
p2057
VS
sS'enslaves'
p2058
VEH
p2059
sS'spinelessness'
p2060
VS
sS'neighbourly'
p2061
VN
sS'revitalise'
p2062
VR
sS'vitorino'
p2063
VV
sS'g8'
p2064
VAH
p2065
sS'mitrovica'
p2066
VM
sS'traumatised'
p2067
VT
sS'wipo'
p2068
VW
sS'ruinously'
p2069
VR
sS'farrago'
p2070
VF
sS'insuperable'
p2071
VIH
p2072
sS'brovinas'
p2073
VB
sS'speroni'
p2074
VS
sS'reappearing'
p2075
VR
sS'kinsmen'
p2076
VK
sS'depositories'
p2077
VD
sS'flechard'
p2078
VF
sS'bleiben'
p2079
VB
sS'materialised'
p2080
VM
sS'ocha'
p2081
VAA
p2082
sS'cfi'
p2083
VIY
p2084
sS'mortalities'
p2085
VM
sS'raninsy'
p2086
VR
sS'cofinancing'
p2087
VK
sS'croo'
p2088
VK
sS'barnier'
p2089
VB
sS'zu'
p2090
VZ
sS'kouchner'
p2091
VK
sS'clich'
p2092
VK
sS'valdivielso'
p2093
VV
sS'infrastrucutres'
p2094
VIH
p2095
sS'ukip'
p2096
VY
sS'calorific'
p2097
VK
sS'chickpeas'
p2098
VCH
p2099
sS'coccidiostats'
p2100
VK
sS'kreissl'
p2101
VK
sS'stedt'
p2102
VS
sS'3b'
p2103
VB
sS'pristina'
p2104
VP
sS'implementable'
p2105
VIH
p2106
sS'flavourings'
p2107
VF
sS'scepticism'
p2108
VS
sS'transhipment'
p2109
VT
sS'50th'
p2110
VAH
p2111
sS'herritarrok'
p2112
VHH
p2113
sS'tajani'
p2114
VT
sS'phonograms'
p2115
VF
sS'ambit'
p2116
VAE
p2117
sS'wiebenga'
p2118
VW
sS'lipietz'
p2119
VL
sS'haulier'
p2120
VHH
p2121
sS'lez'
p2122
VL
sS'commendably'
p2123
VK
sS'proscribing'
p2124
VP
sS'lentejas'
p2125
VL
sS'metre'
p2126
VM
sS'harmonisation'
p2127
VHH
p2128
sS'unestablished'
p2129
VAH
p2130
sS'ouvri'
p2131
VUW
p2132
sS'flavour'
p2133
VF
sS'victimised'
p2134
VV
sS'leucosis'
p2135
VL
sS'taxman'
p2136
VT
sS'backhanders'
p2137
VB
sS'138a'
p2138
VD
sS'stenmarck'
p2139
VS
sS'michiel'
p2140
VM
sS'kurti'
p2141
VK
sS'apm'
p2142
VAE
p2143
sS'inhumanities'
p2144
VIH
p2145
sS'consignments'
p2146
VK
sS'usd'
p2147
VAH
p2148
sS'feo'
p2149
VF
sS'mobilisation'
p2150
VM
sS'extractive'
p2151
VIH
p2152
sS'congratulates'
p2153
VK
sS'sceptics'
p2154
VS
sS'piqu'
p2155
VP
sS'eutrophication'
p2156
VY
sS'assessable'
p2157
VAH
p2158
sS'nassauer'
p2159
VN
sS'contravening'
p2160
VK
sS'iii'
p2161
VIY
p2162
sS'immuration'
p2163
VIH
p2164
sS'lannoye'
p2165
VL
sS'unrivalled'
p2166
VAH
p2167
sS'entreprises'
p2168
VAA
p2169
sS'fulfils'
p2170
VF
sS'transmissible'
p2171
VT
sS'alia'
p2172
VAA
p2173
sS'moluccans'
p2174
VM
sS'votre'
p2175
VV
sS'exonerations'
p2176
VIH
p2177
sS'sinti'
p2178
VS
sS'vireaid'
p2179
VV
sS'bonemeal'
p2180
VB
sS'prioritise'
p2181
VP
sS'mealtimes'
p2182
VM
sS'pretexts'
p2183
VP
sS'marginalising'
p2184
VM
sS'optimised'
p2185
VAA
p2186
sS'summery'
p2187
VS
sS'parlous'
p2188
VP
sS'dimitrakopoulos'
p2189
VD
sS'herzogenrath'
p2190
VHH
p2191
sS'timetabled'
p2192
VT
sS'timeframes'
p2193
VT
sS'verheugen'
p2194
VV
sS'tacs'
p2195
VT
sS'reinstallation'
p2196
VR
sS'dockyards'
p2197
VD
sS'javette'
p2198
VZH
p2199
sS'marpol'
p2200
VM
sS'glasshouses'
p2201
VG
sS'npt'
p2202
VEH
p2203
sS'ultraliberalism'
p2204
VAH
p2205
sS'kindermann'
p2206
VK
sS'sidelong'
p2207
VS
sS'adjectival'
p2208
VAH
p2209
sS'b7'
p2210
VB
sS'hydrogeological'
p2211
VHH
p2212
sS'convenor'
p2213
VK
sS'favourites'
p2214
VF
sS'bipartite'
p2215
VB
sS'politicised'
p2216
VP
sS'europeanised'
p2217
VY
sS'saramago'
p2218
VS
sS'savoyard'
p2219
VS
sS'compostela'
p2220
VK
sS'offences'
p2221
VAH
p2222
sS'thyself'
p2223
VTH
p2224
sS'hrad'
p2225
VHH
p2226
sS'finalising'
p2227
VF
sS'll'
p2228
VL
sS'equalise'
p2229
VIY
p2230
sS'sinecure'
p2231
VS
sS'puerta'
p2232
VP
sS'fitto'
p2233
VF
sS'eieck'
p2234
VAY
p2235
sS'communitised'
p2236
VK
sS'eur'
p2237
VER
p2238
sS'unacceptability'
p2239
VAH
p2240
sS'emphasised'
p2241
VEH
p2242
sS'spelt'
p2243
VS
sS'aquacultural'
p2244
VAE
p2245
sS'emphasises'
p2246
VEH
p2247
sS'stabilise'
p2248
VS
sS'codetermination'
p2249
VK
sS'boetticher'
p2250
VB
sS'destabilisation'
p2251
VD
sS'kilometres'
p2252
VK
sS'krehl'
p2253
VK
sS'expels'
p2254
VIH
p2255
sS'avocat'
p2256
VAE
p2257
sS'renationalise'
p2258
VR
sS'dafydd'
p2259
VD
sS'globalphobes'
p2260
VG
sS'sandb'
p2261
VS
sS'despots'
p2262
VD
sS'baulk'
p2263
VB
sS'outworking'
p2264
VAW
p2265
sS'tente'
p2266
VT
sS'casuistry'
p2267
VK
sS'sion'
p2268
VS
sS'gargani'
p2269
VG
sS'programmes'
p2270
VP
sS'ecofin'
p2271
VIH
p2272
sS'saviours'
p2273
VS
sS'scrapies'
p2274
VS
sS'multiannual'
p2275
VM
sS'liberalising'
p2276
VL
sS'posteriori'
p2277
VP
sS'favours'
p2278
VF
sS'siena'
p2279
VS
sS'cyanogen'
p2280
VS
sS'standardisation'
p2281
VS
sS'ece'
p2282
VEH
p2283
sS'ecb'
p2284
VEH
p2285
sS'piecyk'
p2286
VP
sS'undp'
p2287
VAH
p2288
sS'ecu'
p2289
VEH
p2290
sS'symbolise'
p2291
VS
sS'alchemists'
p2292
VAE
p2293
sS'zimmerling'
p2294
VZ
sS'supranationally'
p2295
VS
sS'libertarianism'
p2296
VL
sS'klagenfurt'
p2297
VK
sS'interinstitutional'
p2298
VIH
p2299
sS'externalisation'
p2300
VIH
p2301
sS'prioritisation'
p2302
VP
sS'modernising'
p2303
VM
sS'thessaloniki'
p2304
VTH
p2305
sS'clamour'
p2306
VK
sS'fertiliser'
p2307
VF
sS'maccormick'
p2308
VM
sS'savour'
p2309
VS
sS'emas'
p2310
VEH
p2311
sS'echr'
p2312
VEH
p2313
sS'demoralised'
p2314
VD
sS'ponderously'
p2315
VP
sS'unabating'
p2316
VAH
p2317
sS'lom'
p2318
VL
sS'jarzembowski'
p2319
VJH
p2320
sS'macrofinancial'
p2321
VM
sS'itchen'
p2322
VIH
p2323
sS'spillages'
p2324
VS
sS'joaqu'
p2325
VJH
p2326
sS'blinkered'
p2327
VB
sS'peijs'
p2328
VP
sS'pronk'
p2329
VP
sS'papayannakis'
p2330
VP
sS'anaemia'
p2331
VAE
p2332
sS'aquavit'
p2333
VAH
p2334
sS'moluccas'
p2335
VM
sS'masochists'
p2336
VM
sS'inuits'
p2337
VIH
p2338
sS'postgraduate'
p2339
VP
sS'apologise'
p2340
VAH
p2341
sS'folias'
p2342
VF
sS'udb'
p2343
VAH
p2344
sS'pradier'
p2345
VP
sS'inestimable'
p2346
VIH
p2347
sS'wppt'
p2348
VW
sS'incongruities'
p2349
VIH
p2350
sS'150g'
p2351
VG
sS'labourers'
p2352
VL
sS'popularised'
p2353
VP
sS'ber'
p2354
VB
sS'duisenberg'
p2355
VD
sS'berthu'
p2356
VB
sS'labouring'
p2357
VL
sS'arousa'
p2358
VER
p2359
sS'duping'
p2360
VD
sS'faim'
p2361
VF
sS'capitulating'
p2362
VK
sS'propuesta'
p2363
VP
sS'multipartite'
p2364
VM
sS'vlaamsblok'
p2365
VV
sS'recantations'
p2366
VR
sS'pretentiously'
p2367
VP
sS'iopcf'
p2368
VAY
p2369
sS'karamanou'
p2370
VK
sS'coresponsibility'
p2371
VK
sS'familiarise'
p2372
VF
sS'multifunctionality'
p2373
VM
sS'relativises'
p2374
VR
sS'bronislaw'
p2375
VB
sS'flagellation'
p2376
VF
sS'energise'
p2377
VEH
p2378
sS'formers'
p2379
VF
sS'instil'
p2380
VIH
p2381
sS'lutte'
p2382
VL
sS'haiders'
p2383
VHH
p2384
sS'salafranca'
p2385
VS
sS'seguro'
p2386
VS
sS'reconcilable'
p2387
VR
sS'bombastically'
p2388
VB
sS'noire'
p2389
VN
sS'underpins'
p2390
VAH
p2391
sS'sceptical'
p2392
VS
sS'regionality'
p2393
VR
sS'authorisations'
p2394
VAO
p2395
sS'succour'
p2396
VS
sS'kargil'
p2397
VK
sS'juristic'
p2398
VJH
p2399
sS'ngl'
p2400
VEH
p2401
sS'xviiith'
p2402
VK
sS'noiz'
p2403
VN
sS'vlaams'
p2404
VV
sS'sensitised'
p2405
VS
sS'minimising'
p2406
VM
sS'finalised'
p2407
VF
sS'postulated'
p2408
VP
sS'democratising'
p2409
VD
sS'renationalisation'
p2410
VR
sS'mga'
p2411
VEH
p2412
sS'tributyl'
p2413
VT
sS'tbt'
p2414
VT
sS'decentralisation'
p2415
VD
sS'regionalists'
p2416
VR
sS'ultraperipheral'
p2417
VAH
p2418
sS'unprejudiced'
p2419
VAH
p2420
sS'conglomerations'
p2421
VK
sS'exportation'
p2422
VEH
p2423
sS'transposition'
p2424
VT
sS'somport'
p2425
VS
sS'wilhelmshaven'
p2426
VW
sS'categorised'
p2427
VK
sS'gbp'
p2428
VB
sS'graa'
p2429
VG
sS'ohim'
p2430
VOW
p2431
sS'suominen'
p2432
VS
sS'irrefutably'
p2433
VIH
p2434
sS'monocultures'
p2435
VM
sS'langenhagen'
p2436
VL
sS'hotting'
p2437
VHH
p2438
sS'btf'
p2439
VB
sS'mercifulness'
p2440
VM
sS'despoiled'
p2441
VD
sS'shepherdstown'
p2442
VSH
p2443
sS'bedevilled'
p2444
VB
sS'kalamanov'
p2445
VK
sS'diese'
p2446
VD
sS'thoughtlessness'
p2447
VTH
p2448
sS'bedfordshire'
p2449
VB
sS'responsibilise'
p2450
VR
sS'globalisation'
p2451
VG
sS'americanically'
p2452
VAH
p2453
sS'unseaworthy'
p2454
VAH
p2455
sS'leyla'
p2456
VL
sS'combated'
p2457
VK
sS'jov'
p2458
VJH
p2459
sS'ld'
p2460
VAH
p2461
sS'chaquelan'
p2462
VSH
p2463
sS'cymru'
p2464
VS
sS'rutelli'
p2465
VR
sS'eta'
p2466
VIY
p2467
sS'utilising'
p2468
VY
sS'avil'
p2469
VAE
p2470
sS'cl'
p2471
VK
sS'authorised'
p2472
VAO
p2473
sS'maliakos'
p2474
VM
sS'fipol'
p2475
VF
sS'ce'
p2476
VS
sS'hm3'
p2477
VAH
p2478
sS'vend'
p2479
VV
sS'juger'
p2480
VJH
p2481
sS'normalisation'
p2482
VN
sS'uck'
p2483
VAH
p2484
sS'regenerative'
p2485
VR
sS'cu'
p2486
VK
sS'authorises'
p2487
VAO
p2488
sS'codecisions'
p2489
VK
sS'ecips'
p2490
VEH
p2491
sS'azad'
p2492
VAH
p2493
sS'minimise'
p2494
VM
sS'externalising'
p2495
VIH
p2496
sS'manifestos'
p2497
VM
sS'exploiters'
p2498
VIH
p2499
sS'neighbour'
p2500
VN
sS'patriotisms'
p2501
VP
sS'mouskouri'
p2502
VM
sS'subparagraph'
p2503
VS
sS'paasilinna'
p2504
VP
sS'frameworks'
p2505
VF
sS'synergistically'
p2506
VS
sS'intranet'
p2507
VIH
p2508
sS'backbenchers'
p2509
VB
sS'caudron'
p2510
VK
sS'lassitude'
p2511
VL
sS'galeote'
p2512
VG
sS'retabled'
p2513
VR
sS'hobbyhorse'
p2514
VHH
p2515
sS'monopolised'
p2516
VM
sS'kosovan'
p2517
VK
sS'biannually'
p2518
VB
sS'anthroprogenic'
p2519
VAE
p2520
sS'termism'
p2521
VT
sS'chapeau'
p2522
VSH
p2523
sS'vp'
p2524
VV
sS'pedalling'
p2525
VP
sS'kosovar'
p2526
VK
sS'philoxenia'
p2527
VF
sS'industrialisation'
p2528
VIH
p2529
sS'avc'
p2530
VAE
p2531
sS'rendaire'
p2532
VR
sS'justiciable'
p2533
VJH
p2534
sS'voivodina'
p2535
VV
sS'neyra'
p2536
VN
sS'codecision'
p2537
VK
sS'docups'
p2538
VD
sS'fifthly'
p2539
VF
sS'brahim'
p2540
VB
sS'indivisibility'
p2541
VIH
p2542
sS'politicise'
p2543
VP
sS'garaud'
p2544
VG
sS'concordance'
p2545
VK
sS'vilagarcia'
p2546
VV
sS'schr'
p2547
VS
sS'metamorphosing'
p2548
VM
sS'realises'
p2549
VR
sS'giorgios'
p2550
VJH
p2551
sS'colour'
p2552
VK
sS'underspent'
p2553
VAH
p2554
sS'neorealist'
p2555
VN
sS'herinneringen'
p2556
VHH
p2557
sS'hushkit'
p2558
VHH
p2559
sS'kuckelkorn'
p2560
VK
sS'realised'
p2561
VR
sS'sourced'
p2562
VS
sS'juncker'
p2563
VJH
p2564
sS'carnero'
p2565
VK
sS'poettering'
p2566
VP
sS'disrupters'
p2567
VD
sS'corruptibility'
p2568
VK
sS'crunchie'
p2569
VK
sS'antisemitism'
p2570
VAE
p2571
sS'hypocritically'
p2572
VHH
p2573
sS'adr'
p2574
VAE
p2575
sS'wallstr'
p2576
VW
sS'urbanisation'
p2577
VER
p2578
sS'nter'
p2579
VN
sS'cushnahan'
p2580
VK
sS'optimising'
p2581
VAA
p2582
sS'weu'
p2583
VW
sS'practise'
p2584
VP
sS'assistito'
p2585
VAH
p2586
sS'impositions'
p2587
VIH
p2588
sS'ectaa'
p2589
VEH
p2590
sS'normalise'
p2591
VN
sS'poggiolini'
p2592
VP
sS'meaningfulness'
p2593
VM
sS'gorostiaga'
p2594
VG
sS'marketeering'
p2595
VM
sS'supping'
p2596
VS
sS'madariaga'
p2597
VM
sS'realit'
p2598
VR
sS'unnoted'
p2599
VAH
p2600
sS'candu'
p2601
VK
sS'maghreb'
p2602
VM
sS'dutroux'
p2603
VD
sS'colonising'
p2604
VK
sS'agusta'
p2605
VAA
p2606
sS'muscardini'
p2607
VM
sS'troposphere'
p2608
VT
sS'circuitously'
p2609
VS
sS'bizarrely'
p2610
VB
sS'thaci'
p2611
VTH
p2612
sS'abusively'
p2613
VAH
p2614
sS'desama'
p2615
VD
sS'conver'
p2616
VK
sS'transposing'
p2617
VT
sS'crewing'
p2618
VK
sS'rapkay'
p2619
VR
sS'14th'
p2620
VAH
p2621
sS'esf'
p2622
VEH
p2623
sS'esc'
p2624
VEH
p2625
sS'fudges'
p2626
VF
sS'esa'
p2627
VIY
p2628
sS'alkartasuna'
p2629
VAE
p2630
sS'analysed'
p2631
VAE
p2632
sS'sarre'
p2633
VS
sS'piggledy'
p2634
VP
sS'viviane'
p2635
VV
sS'cumulation'
p2636
VK
sS'kosovars'
p2637
VK
sS'zootechnical'
p2638
VZ
sS'chocoholics'
p2639
VCH
p2640
sS'transitive'
p2641
VT
sS'mammon'
p2642
VM
sS'mcduck'
p2643
VM
sS'localised'
p2644
VL
sS'unfavourable'
p2645
VAH
p2646
sS'alimentarius'
p2647
VAE
p2648
sS'disgracefully'
p2649
VD
sS'unfavourably'
p2650
VAH
p2651
sS'endeavours'
p2652
VEH
p2653
sS'tidied'
p2654
VT
sS'sahrawis'
p2655
VS
sS'desertification'
p2656
VD
sS'interethnic'
p2657
VIH
p2658
sS'liikanen'
p2659
VL
sS'rothley'
p2660
VR
sS'unwished'
p2661
VAH
p2662
sS'posselt'
p2663
VP
sS'dispensaries'
p2664
VD
sS'gretab'
p2665
VG
sS'institutionalising'
p2666
VIH
p2667
sS'finalisation'
p2668
VF
sS'demonising'
p2669
VD
sS'pernickety'
p2670
VP
sS'hm'
p2671
VAH
p2672
sS'bridgeheads'
p2673
VB
sS'wuori'
p2674
VW
sS'detestable'
p2675
VD
sS'macedonians'
p2676
VM
sS'minuted'
p2677
VM
sS'gaborone'
p2678
VG
sS'mistranslation'
p2679
VM
sS'simla'
p2680
VS
sS'bce'
p2681
VB
sS'destabilise'
p2682
VD
sS'hipc'
p2683
VHH
p2684
sS'democratise'
p2685
VD
sS'ini'
p2686
VIY
p2687
sS'intradermal'
p2688
VIH
p2689
sS'youthstart'
p2690
VY
sS'bartho'
p2691
VB
sS'postmen'
p2692
VP
sS'decourri'
p2693
VD
sS'disinheriting'
p2694
VD
sS'oau'
p2695
VOW
p2696
sS'srms'
p2697
VS
sS'neighbourhood'
p2698
VN
sS'latterly'
p2699
VL
sS'standardise'
p2700
VS
sS'blameworthy'
p2701
VB
sS'1kg'
p2702
VG
sS'belder'
p2703
VB
sS'equalising'
p2704
VIY
p2705
sS'cheque'
p2706
VCH
p2707
sS'disjunction'
p2708
VD
sS'insipid'
p2709
VIH
p2710
sS'galvanise'
p2711
VG
sS'herbivores'
p2712
VHH
p2713
sS'entreat'
p2714
VEH
p2715
sS'trakatellis'
p2716
VT
sS'queir'
p2717
VK
s.