(dp1
S'schengen'
p2
VSH
p3
sS'boilersuit'
p4
VB
sS'unice'
p5
VY
sS'geresta'
p6
VJH
p7
sS'collating'
p8
VK
sS'iuris'
p9
VY
sS'souladakis'
p10
VS
sS'batasuna'
p11
VB
sS'peripheries'
p12
VP
sS'veux'
p13
VV
sS'jeopardising'
p14
VJH
p15
sS'crisex'
p16
VK
sS'velzen'
p17
VV
sS'andalucia'
p18
VAE
p19
sS'characterises'
p20
VK
sS'parit'
p21
VP
sS'neighbours'
p22
VN
sS'brempt'
p23
VB
sS'characterised'
p24
VK
sS'categorisation'
p25
VK
sS'derogate'
p26
VD
sS'environnement'
p27
VEH
p28
sS'rashly'
p29
VR
sS'gligorov'
p30
VG
sS'diamantopoulou'
p31
VD
sS'jaca'
p32
VJH
p33
sS'achievability'
p34
VEY
p35
sS'murcia'
p36
VM
sS'subsidising'
p37
VS
sS'globalising'
p38
VG
sS'subprogrammes'
p39
VS
sS'markov'
p40
VM
sS'unauthorised'
p41
VAH
p42
sS'fogh'
p43
VF
sS'chev'
p44
VCH
p45
sS'interparliamentary'
p46
VIH
p47
sS'prising'
p48
VP
sS'capitalisation'
p49
VK
sS'ilisu'
p50
VIH
p51
sS'rouen'
p52
VR
sS'cantabrian'
p53
VK
sS'draftsperson'
p54
VD
sS'abogado'
p55
VAA
p56
sS'nen'
p57
VN
sS'faecal'
p58
VF
sS'bandying'
p59
VB
sS'nea'
p60
VN
sS'alavanos'
p61
VAE
p62
sS'sittings'
p63
VS
sS'ner'
p64
VN
sS'ospar'
p65
VAA
p66
sS'watercourse'
p67
VW
sS'unmotivated'
p68
VAH
p69
sS'hemicycle'
p70
VHH
p71
sS'schierhuber'
p72
VSH
p73
sS'repugnance'
p74
VR
sS'ventilators'
p75
VV
sS'specialise'
p76
VS
sS'mep'
p77
VM
sS'mediagoguery'
p78
VM
sS'feedstuffs'
p79
VF
sS'antisemitic'
p80
VAE
p81
sS'chlorides'
p82
VK
sS'karit'
p83
VK
sS'yarmouth'
p84
VY
sS'scharping'
p85
VSH
p86
sS'oloron'
p87
VAA
p88
sS'ermua'
p89
VER
p90
sS'populaire'
p91
VP
sS'nulla'
p92
VN
sS'summarising'
p93
VS
sS'criticise'
p94
VK
sS'remedium'
p95
VR
sS'lldcs'
p96
VL
sS'sympathise'
p97
VS
sS'specialising'
p98
VS
sS'pontevedra'
p99
VP
sS'exceedance'
p100
VIH
p101
sS'cloven'
p102
VK
sS'rationalise'
p103
VR
sS'dalmau'
p104
VD
sS'eurojust'
p105
VY
sS'imperilling'
p106
VIH
p107
sS'sceptically'
p108
VS
sS'pomes'
p109
VP
sS'antidemocratic'
p110
VAE
p111
sS'nement'
p112
VN
sS'equalisation'
p113
VIY
p114
sS'oarsmen'
p115
VAO
p116
sS'enfopol'
p117
VEH
p118
sS'muss'
p119
VM
sS'resurfaces'
p120
VR
sS'equilateral'
p121
VEH
p122
sS'jeopardises'
p123
VJH
p124
sS'camre'
p125
VK
sS'civilisations'
p126
VS
sS'jeopardised'
p127
VJH
p128
sS'mp'
p129
VEH
p130
sS'radicalisation'
p131
VR
sS'quaestor'
p132
VK
sS'hayfork'
p133
VHH
p134
sS'envisaging'
p135
VEH
p136
sS'microcredits'
p137
VM
sS'teratogenicity'
p138
VT
sS'frescos'
p139
VF
sS'gats'
p140
VG
sS'margallo'
p141
VM
sS'hor'
p142
VHH
p143
sS'iiia'
p144
VIY
p145
sS'iiic'
p146
VAY
p147
sS'finalise'
p148
VF
sS'confederal'
p149
VK
sS'utilise'
p150
VY
sS'memoires'
p151
VM
sS'carinthia'
p152
VK
sS'underhand'
p153
VAH
p154
sS'publicised'
p155
VP
sS'disassembly'
p156
VD
sS'undesired'
p157
VAH
p158
sS'endeavoured'
p159
VEH
p160
sS'rouses'
p161
VR
sS'ewc'
p162
VEH
p163
sS'syllabuses'
p164
VS
sS'parcours'
p165
VP
sS'materialise'
p166
VM
sS'sterilisation'
p167
VS
sS'mps'
p168
VM
sS'cascais'
p169
VK
sS'extents'
p170
VIH
p171
sS'europeanisation'
p172
VY
sS'fifg'
p173
VF
sS'priding'
p174
VP
sS'shipwrecked'
p175
VSH
p176
sS'telegrammatic'
p177
VT
sS'feedingstuff'
p178
VF
sS'galician'
p179
VG
sS'anweisungen'
p180
VAE
p181
sS'adige'
p182
VAE
p183
sS'incoherences'
p184
VIH
p185
sS'inadmissibility'
p186
VIH
p187
sS'literates'
p188
VL
sS'imf'
p189
VIH
p190
sS'cle'
p191
VK
sS'encapsulates'
p192
VEH
p193
sS'carrefours'
p194
VK
sS'ftse'
p195
VEH
p196
sS'jackboot'
p197
VJH
p198
sS'centralising'
p199
VS
sS'reconverted'
p200
VR
sS'colourless'
p201
VK
sS'paronen'
p202
VP
sS'hatzidakis'
p203
VHH
p204
sS'hertfordshire'
p205
VHH
p206
sS'relaunching'
p207
VR
sS'mayoress'
p208
VM
sS'tuberculin'
p209
VT
sS'souchet'
p210
VS
sS'regionalisation'
p211
VR
sS'privatisations'
p212
VP
sS'practising'
p213
VP
sS'extrajudicial'
p214
VIH
p215
sS'domicile'
p216
VD
sS'rt'
p217
VR
sS'rr'
p218
VR
sS'collaborates'
p219
VK
sS'recognising'
p220
VR
sS'ry'
p221
VR
sS'sintra'
p222
VS
sS'multicoloured'
p223
VM
sS'rg'
p224
VAA
p225
sS'unromantic'
p226
VAH
p227
sS'rc'
p228
VR
sS'sme'
p229
VS
sS'rh'
p230
VAA
p231
sS'communitisation'
p232
VK
sS'rk'
p233
VR
sS'obnova'
p234
VAH
p235
sS'higgledy'
p236
VHH
p237
sS'bertel'
p238
VB
sS'rutnet'
p239
VR
sS'mudflats'
p240
VM
sS'sichrovsky'
p241
VS
sS'r4'
p242
VAA
p243
sS'hollowness'
p244
VHH
p245
sS'hainaut'
p246
VHH
p247
sS'redrafts'
p248
VR
sS'att'
p249
VAE
p250
sS'iso'
p251
VIY
p252
sS'isn'
p253
VIH
p254
sS'1970s'
p255
VAH
p256
sS'benchmarking'
p257
VB
sS'favoured'
p258
VF
sS'popularise'
p259
VP
sS'officious'
p260
VAH
p261
sS'operability'
p262
VAA
p263
sS'laxer'
p264
VL
sS'underspends'
p265
VAH
p266
sS'movimento'
p267
VM
sS'lega'
p268
VL
sS'activators'
p269
VAE
p270
sS'vitoria'
p271
VV
sS'mamre'
p272
VM
sS'staes'
p273
VS
sS'decentralised'
p274
VD
sS'cabling'
p275
VK
sS'romanies'
p276
VR
sS'sidelining'
p277
VS
sS'a32'
p278
VEY
p279
sS'bjerregaard'
p280
VB
sS'17a'
p281
VD
sS'nh3'
p282
VEH
p283
sS'schroedter'
p284
VSH
p285
sS'entente'
p286
VEH
p287
sS'qmv'
p288
VK
sS'cisterna'
p289
VS
sS'fossilised'
p290
VF
sS'ghilardotti'
p291
VG
sS'whinging'
p292
VW
sS'modernisation'
p293
VM
sS'auctoritas'
p294
VAO
p295
sS'speediness'
p296
VS
sS'administrated'
p297
VAH
p298
sS'myller'
p299
VM
sS'jeopardise'
p300
VJH
p301
sS'unhcr'
p302
VAH
p303
sS'fathomless'
p304
VF
sS'brominated'
p305
VB
sS'drogheda'
p306
VD
sS'communitise'
p307
VK
sS'overstrained'
p308
VOW
p309
sS'sysmin'
p310
VS
sS'denkta'
p311
VD
sS'colourful'
p312
VK
sS'kfor'
p313
VK
sS'penalise'
p314
VP
sS'enshrining'
p315
VAH
p316
sS'omagh'
p317
VAH
p318
sS'guillemots'
p319
VG
sS'rationalisation'
p320
VR
sS'abb'
p321
VAE
p322
sS'lothar'
p323
VL
sS'irrigates'
p324
VIH
p325
sS'bse'
p326
VB
sS'ionising'
p327
VAY
p328
sS'untempted'
p329
VAH
p330
sS'mobilised'
p331
VM
sS'lacuna'
p332
VL
sS'ejido'
p333
VEY
p334
sS'floodtide'
p335
VF
sS'trivialisation'
p336
VT
sS'charterer'
p337
VCH
p338
sS'cynegetic'
p339
VS
sS'discourteous'
p340
VD
sS'romagna'
p341
VR
sS'acquis'
p342
VAE
p343
sS'florenz'
p344
VF
sS'communiqu'
p345
VK
sS'ment'
p346
VM
sS'hrt'
p347
VHH
p348
sS'marinho'
p349
VM
sS'discretional'
p350
VD
sS'tsagaropoulou'
p351
VT
sS'ponnambalam'
p352
VP
sS'dm'
p353
VAH
p354
sS'dg'
p355
VJH
p356
sS'banotti'
p357
VB
sS'inelasticity'
p358
VIH
p359
sS'bradbourn'
p360
VB
sS'consorts'
p361
VK
sS'disequilibria'
p362
VD
sS'ispar'
p363
VAY
p364
sS'paedophiles'
p365
VP
sS'asturias'
p366
VAH
p367
sS'transhipped'
p368
VT
sS'ceyhun'
p369
VS
sS'ghettoisation'
p370
VG
sS'meps'
p371
VM
sS'ems'
p372
VEH
p373
sS'ardennes'
p374
VAA
p375
sS'flexibilising'
p376
VF
sS'hectolitres'
p377
VHH
p378
sS'vandalised'
p379
VV
sS'middelhoek'
p380
VM
sS'1960s'
p381
VAH
p382
sS'stegrennan'
p383
VS
sS'helcom'
p384
VHH
p385
sS'supranationalism'
p386
VS
sS'co2'
p387
VK
sS'erhalten'
p388
VER
p389
sS'globalist'
p390
VG
sS'sakellariou'
p391
VS
sS'natura'
p392
VN
sS'liaise'
p393
VL
sS'geberlandes'
p394
VG
sS'visualise'
p395
VV
sS'inspectorates'
p396
VIH
p397
sS'auroi'
p398
VAO
p399
sS'mistimed'
p400
VM
sS'institutionalised'
p401
VIH
p402
sS'rapporteur'
p403
VR
sS'wto'
p404
VT
sS'civilised'
p405
VS
sS'pietrasanta'
p406
VP
sS'vallelersundi'
p407
VV
sS'sympathises'
p408
VS
sS'timescale'
p409
VT
sS'offloading'
p410
VAO
p411
sS'honouring'
p412
VAA
p413
sS'unapplied'
p414
VAH
p415
sS'2nd'
p416
VD
sS'unnoted'
p417
VAH
p418
sS'godparent'
p419
VG
sS'rushailo'
p420
VR
sS'interrelations'
p421
VIH
p422
sS'levante'
p423
VL
sS'organisational'
p424
VAO
p425
sS'berenguer'
p426
VB
sS'recognises'
p427
VR
sS'frf'
p428
VF
sS'criticised'
p429
VK
sS'wisemen'
p430
VW
sS'recognised'
p431
VR
sS'josse'
p432
VJH
p433
sS'criticises'
p434
VK
sS'abuja'
p435
VAE
p436
sS'dynamically'
p437
VD
sS'25o'
p438
VN
sS'criminalised'
p439
VK
sS'bizonal'
p440
VB
sS'criminalises'
p441
VK
sS'europeanist'
p442
VY
sS'gnp'
p443
VEH
p444
sS'organisers'
p445
VAO
p446
sS'marginalised'
p447
VM
sS'atlantique'
p448
VAE
p449
sS'orthomixomicrovirus'
p450
VAO
p451
sS'viii'
p452
VV
sS'aeroplane'
p453
VEH
p454
sS'ix'
p455
VIH
p456
sS'persecutory'
p457
VP
sS'daladier'
p458
VD
sS'derisory'
p459
VD
sS'nationalrat'
p460
VN
sS'iv'
p461
VAY
p462
sS'ii'
p463
VAY
p464
sS'iccat'
p465
VIH
p466
sS'theato'
p467
VTH
p468
sS'impasses'
p469
VIH
p470
sS'phare'
p471
VF
sS'sterckx'
p472
VS
sS'autarkic'
p473
VAO
p474
sS'coastguard'
p475
VK
sS'plimsoll'
p476
VP
sS'authorise'
p477
VAO
p478
sS'sovereignties'
p479
VS
sS'urquiola'
p480
VER
p481
sS'cederschi'
p482
VS
sS'gorsel'
p483
VG
sS'imbues'
p484
VIH
p485
sS'continentalisation'
p486
VK
sS'characterise'
p487
VK
sS'eusko'
p488
VY
sS'emphasise'
p489
VEH
p490
sS'nio'
p491
VN
sS'bolkestein'
p492
VB
sS'rogatory'
p493
VR
sS'mailshots'
p494
VM
sS'nationalisation'
p495
VN
sS'hadera'
p496
VHH
p497
sS'sperkhios'
p498
VS
sS'besque'
p499
VB
sS'centred'
p500
VS
sS'conciliations'
p501
VK
sS'paralysed'
p502
VP
sS'beavering'
p503
VB
sS'howitts'
p504
VHH
p505
sS'juridical'
p506
VJH
p507
sS'prioritising'
p508
VP
sS'crewed'
p509
VK
sS'elmar'
p510
VEH
p511
sS'harmonise'
p512
VHH
p513
sS'dogmas'
p514
VD
sS'yeu'
p515
VY
sS'dunams'
p516
VD
sS'biscay'
p517
VB
sS'europeanise'
p518
VY
sS'monocultures'
p519
VM
sS'illipe'
p520
VIH
p521
sS'igal'
p522
VAY
p523
sS'5g'
p524
VG
sS'5b'
p525
VB
sS'hedkvist'
p526
VHH
p527
sS'calvinists'
p528
VK
sS'sapar'
p529
VS
sS'kotka'
p530
VK
sS'silting'
p531
VS
sS'deckchairs'
p532
VD
sS'scrutinised'
p533
VS
sS'portuguesa'
p534
VP
sS'borr'
p535
VB
sS'westendorp'
p536
VW
sS'evincing'
p537
VIY
p538
sS'polycentric'
p539
VP
sS'destabilising'
p540
VD
sS'cns'
p541
VS
sS'fascistic'
p542
VF
sS'unambitious'
p543
VAH
p544
sS'icg'
p545
VIH
p546
sS'honoured'
p547
VAA
p548
sS'ict'
p549
VIH
p550
sS'gollnisch'
p551
VG
sS'ecus'
p552
VIY
p553
sS'mollar'
p554
VM
sS'kandal'
p555
VK
sS'untiringly'
p556
VAH
p557
sS'untrammelled'
p558
VAH
p559
sS'eneko'
p560
VEH
p561
sS'collectivity'
p562
VK
sS'rationalisations'
p563
VR
sS'channelled'
p564
VCH
p565
sS'depopulated'
p566
VD
sS'coraz'
p567
VK
sS'indigestible'
p568
VIH
p569
sS'dineh'
p570
VD
sS'discourtesy'
p571
VD
sS'ppe'
p572
VP
sS'resourcing'
p573
VR
sS'nought'
p574
VN
sS'22a'
p575
VD
sS'ussr'
p576
VAH
p577
sS'1990s'
p578
VAH
p579
sS'multifunctional'
p580
VM
sS'alfanyurt'
p581
VAE
p582
sS'internalisation'
p583
VIH
p584
sS'abjectly'
p585
VAE
p586
sS'att3'
p587
VAE
p588
sS'noirmoutier'
p589
VN
sS'oomen'
p590
VOW
p591
sS'irreprehensible'
p592
VIH
p593
sS'quousque'
p594
VK
sS'comart'
p595
VK
sS'therefrom'
p596
VTH
p597
sS'foro'
p598
VF
sS'straggly'
p599
VS
sS'solidar'
p600
VS
sS'semiological'
p601
VS
sS'analyse'
p602
VAE
p603
sS'so2'
p604
VS
sS'transregional'
p605
VT
sS'canfranc'
p606
VK
sS'solas'
p607
VS
sS'heteronomous'
p608
VHH
p609
sS'charterers'
p610
VCH
p611
sS'individualised'
p612
VIH
p613
sS'centralist'
p614
VS
sS'wwf'
p615
VW
sS'centralise'
p616
VS
sS'erdf'
p617
VER
p618
sS'dreifuss'
p619
VD
sS'meagre'
p620
VM
sS'fuster'
p621
VF
sS'regurgitating'
p622
VR
sS'regularisation'
p623
VR
sS'liberalise'
p624
VL
sS'phytosanitary'
p625
VF
sS'merseyside'
p626
VM
sS'nl'
p627
VEH
p628
sS'nf'
p629
VEH
p630
sS'unsustainability'
p631
VAH
p632
sS'rspb'
p633
VR
sS'charente'
p634
VCH
p635
sS'mediaeval'
p636
VM
sS'jurti'
p637
VJH
p638
sS'babitsky'
p639
VB
sS'boumediene'
p640
VB
sS'functionalist'
p641
VF
sS'crystallised'
p642
VK
sS'ringholm'
p643
VR
sS'crystallise'
p644
VK
sS'stabex'
p645
VS
sS'aquacultures'
p646
VAE
p647
sS'roo'
p648
VR
sS'amiens'
p649
VEY
p650
sS'reformulating'
p651
VR
sS'tses'
p652
VT
sS'swingeing'
p653
VS
sS'interrelatedness'
p654
VIH
p655
sS'rationalised'
p656
VR
sS'trepca'
p657
VT
sS'smes'
p658
VS
sS'ostreiculture'
p659
VAO
p660
sS'stagiaires'
p661
VS
sS'aspe'
p662
VAE
p663
sS'21st'
p664
VEH
p665
sS'bioplastic'
p666
VB
sS'summarises'
p667
VS
sS'taylorism'
p668
VT
sS'wilful'
p669
VW
sS'vez'
p670
VV
sS'summarised'
p671
VS
sS'euskal'
p672
VY
sS'caillaux'
p673
VK
sS'additionality'
p674
VAH
p675
sS'georgievski'
p676
VJH
p677
sS'mooted'
p678
VM
sS'decreeing'
p679
VD
sS'salsigne'
p680
VS
sS'mobilise'
p681
VM
sS'bicommunal'
p682
VB
sS'mintoff'
p683
VM
sS'magps'
p684
VM
sS'litigable'
p685
VL
sS'consorted'
p686
VK
sS'viceconte'
p687
VV
sS'bilges'
p688
VB
sS'militarisation'
p689
VM
sS'alicante'
p690
VAE
p691
sS'hler'
p692
VHH
p693
sS'procacci'
p694
VP
sS'petersberg'
p695
VP
sS'landaburu'
p696
VL
sS'generalisations'
p697
VJH
p698
sS'unmik'
p699
VAH
p700
sS'minimis'
p701
VM
sS'unmic'
p702
VAH
p703
sS'tsatsos'
p704
VT
sS'libertatum'
p705
VL
sS'eutrophying'
p706
VY
sS'favour'
p707
VF
sS'hotrec'
p708
VHH
p709
sS'guererro'
p710
VG
sS'ldcs'
p711
VEY
p712
sS'exceedances'
p713
VIH
p714
sS'honour'
p715
VAA
p716
sS'topicality'
p717
VT
sS'plooij'
p718
VP
sS'suspensory'
p719
VS
sS'inflationist'
p720
VIH
p721
sS'maximising'
p722
VM
sS'scrapyards'
p723
VS
sS'bp'
p724
VB
sS'alyssandrakis'
p725
VAE
p726
sS'attwooll'
p727
VAH
p728
sS'humour'
p729
VHH
p730
sS'keenness'
p731
VK
sS'queiro'
p732
VK
sS'europol'
p733
VY
sS'fbi'
p734
VEH
p735
sS'loutish'
p736
VL
sS'ucits'
p737
VY
sS'antiracism'
p738
VAE
p739
sS'gulags'
p740
VG
sS'altener'
p741
VAO
p742
sS'runnymede'
p743
VR
sS'dimokratia'
p744
VD
sS'msf'
p745
VM
sS'andr'
p746
VAE
p747
sS'tyres'
p748
VT
sS'tsarist'
p749
VT
sS'chocolatl'
p750
VCH
p751
sS'bides'
p752
VB
sS'retrospection'
p753
VR
sS'maximise'
p754
VM
sS'upgradable'
p755
VAH
p756
sS'ovine'
p757
VOW
p758
sS'schoolmasterish'
p759
VS
sS'marginalisation'
p760
VM
sS'emphasising'
p761
VEH
p762
sS'modernised'
p763
VM
sS'ibm'
p764
VIH
p765
sS'socialisation'
p766
VS
sS'lieneman'
p767
VL
sS'cabeza'
p768
VK
sS'bureaux'
p769
VB
sS'indolence'
p770
VIH
p771
sS'usability'
p772
VY
sS'solbes'
p773
VS
sS'gillnets'
p774
VG
sS'1980s'
p775
VAH
p776
sS'detaching'
p777
VD
sS'wordings'
p778
VW
sS'franconian'
p779
VF
sS'litre'
p780
VL
sS'conurbation'
p781
VK
sS'grosset'
p782
VG
sS'naivety'
p783
VN
sS'helpfulness'
p784
VHH
p785
sS'cecaf'
p786
VS
sS'strictness'
p787
VS
sS'atxalandabaso'
p788
VAE
p789
sS'liberalisation'
p790
VL
sS'neighbourliness'
p791
VN
sS'imbeni'
p792
VIH
p793
sS'motorway'
p794
VM
sS'subrogate'
p795
VS
sS'teratogenic'
p796
VT
sS'pilate'
p797
VP
sS'atat'
p798
VEY
p799
sS'forestier'
p800
VF
sS'deve'
p801
VD
sS'ss'
p802
VEH
p803
sS'sp'
p804
VS
sS'sv'
p805
VEH
p806
sS'yobs'
p807
VY
sS'sj'
p808
VSH
p809
sS'neighbourhoods'
p810
VN
sS'paternalist'
p811
VP
sS'irresolute'
p812
VIH
p813
sS'rumoured'
p814
VR
sS'characterisations'
p815
VK
sS'councillor'
p816
VK
sS'maij'
p817
VM
sS'nol'
p818
VN
sS'applecart'
p819
VAE
p820
sS'recommenced'
p821
VR
sS'illogically'
p822
VIH
p823
sS'widescale'
p824
VW
sS'contravened'
p825
VK
sS'polyaromatic'
p826
VP
sS'nox'
p827
VN
sS'ssel'
p828
VS
sS'contravenes'
p829
VK
sS'nos'
p830
VN
sS'hulten'
p831
VHH
p832
sS'gemelli'
p833
VJH
p834
sS'civilisation'
p835
VS
sS'realise'
p836
VR
sS'hydrological'
p837
VHH
p838
sS'teaux'
p839
VT
sS'terr'
p840
VT
sS'caudillos'
p841
VK
sS'retarders'
p842
VR
sS'kkinen'
p843
VK
sS'tannock'
p844
VT
sS'communitising'
p845
VK
sS'ec'
p846
VEH
p847
sS'ostracised'
p848
VAA
p849
sS'ez'
p850
VEH
p851
sS'eu'
p852
VY
sS'ep'
p853
VEH
p854
sS'tisza'
p855
VT
sS'adduced'
p856
VAH
p857
sS'racan'
p858
VR
sS'ugarten'
p859
VY
sS'ieke'
p860
VIY
p861
sS'nihilo'
p862
VN
sS'busybody'
p863
VB
sS'retrodisplacement'
p864
VR
sS'reformulation'
p865
VR
sS'inessential'
p866
VAY
p867
sS'phthalates'
p868
VF
sS'penalising'
p869
VP
sS'aznar'
p870
VAE
p871
sS'schnellhardt'
p872
VSH
p873
sS'undesirably'
p874
VAH
p875
sS'apologising'
p876
VAH
p877
sS'industrialised'
p878
VIH
p879
sS'invalidity'
p880
VIH
p881
sS'feedingstuffs'
p882
VF
sS'rapporteurs'
p883
VR
sS'reductionist'
p884
VR
sS'reclassifications'
p885
VR
sS'xx'
p886
VK
sS'wallonian'
p887
VW
sS'dramatised'
p888
VD
sS'modernise'
p889
VM
sS'reorganising'
p890
VR
sS'1c'
p891
VS
sS'immortalised'
p892
VIH
p893
sS'democratique'
p894
VD
sS'clamouring'
p895
VK
sS'asymmetric'
p896
VEY
p897
sS'pnv'
p898
VAE
p899
sS'imputations'
p900
VIH
p901
sS'gastroenteritis'
p902
VG
sS'interreg'
p903
VIH
p904
sS'optimise'
p905
VAA
p906
sS'grammes'
p907
VG
sS'modelled'
p908
VM
sS'eurosceptic'
p909
VY
sS'interservice'
p910
VIH
p911
sS'standardised'
p912
VS
sS'scandalised'
p913
VS
sS'eudor'
p914
VOY
p915
sS'watercourses'
p916
VW
sS'sahel'
p917
VS
sS'trojer'
p918
VT
sS'demotivation'
p919
VD
sS'seabirds'
p920
VS
sS'unowned'
p921
VY
sS'barzanti'
p922
VB
sS'karelia'
p923
VK
sS'wct'
p924
VW
sS'leinster'
p925
VL
sS'55th'
p926
VAH
p927
sS'algarve'
p928
VAE
p929
sS'authorising'
p930
VAO
p931
sS'degassing'
p932
VD
sS'errez'
p933
VEH
p934
sS'renan'
p935
VR
sS'transnationality'
p936
VT
sS'bourlanges'
p937
VB
sS'incentivise'
p938
VIH
p939
sS'iniquitous'
p940
VIH
p941
sS'padanian'
p942
VP
sS'folketing'
p943
VF
sS'tarek'
p944
VT
sS'methodologically'
p945
VM
sS'rfler'
p946
VR
sS'colegislator'
p947
VK
sS'antiracist'
p948
VAE
p949
sS'readmission'
p950
VR
sS'rebalanced'
p951
VR
sS'manoeuvre'
p952
VM
sS'competitivity'
p953
VK
sS'blace'
p954
VB
sS'coherences'
p955
VK
sS'godlike'
p956
VG
sS'gew'
p957
VJH
p958
sS'enumerations'
p959
VAH
p960
sS'remoter'
p961
VR
sS'interregional'
p962
VIH
p963
sS'honours'
p964
VAA
p965
sS'sisyphus'
p966
VS
sS'undemanding'
p967
VAH
p968
sS'segni'
p969
VS
sS'cuxhaven'
p970
VK
sS'diversities'
p971
VD
sS'abano'
p972
VAA
p973
sS'cf'
p974
VIY
p975
sS'cordiale'
p976
VK
sS'ence'
p977
VEH
p978
sS'jettons'
p979
VJH
p980
sS'malmstr'
p981
VM
sS'obejct'
p982
VAH
p983
sS'guterres'
p984
VG
sS'cavalese'
p985
VK
sS'poena'
p986
VP
sS'obfuscates'
p987
VAA
p988
sS'roure'
p989
VR
sS'compliances'
p990
VK
sS'harmonised'
p991
VHH
p992
sS'legale'
p993
VL
sS'misinterpretations'
p994
VM
sS'wallonia'
p995
VW
sS'foisting'
p996
VF
sS'minamata'
p997
VM
sS'colours'
p998
VK
sS'recognisable'
p999
VR
sS'harmonises'
p1000
VHH
p1001
sS'recourses'
p1002
VR
sS'innovatively'
p1003
VIH
p1004
sS'conformism'
p1005
VK
sS'tacis'
p1006
VT
sS'tanio'
p1007
VT
sS'scrutinise'
p1008
VS
sS'militarised'
p1009
VM
sS'beguin'
p1010
VB
sS'marriageable'
p1011
VM
sS'prejudgements'
p1012
VP
sS'antisemite'
p1013
VAE
p1014
sS'cips'
p1015
VS
sS'rivalled'
p1016
VR
sS'generalisation'
p1017
VJH
p1018
sS'shamefully'
p1019
VSH
p1020
sS'twix'
p1021
VT
sS'harbouring'
p1022
VHH
p1023
sS'roadworthiness'
p1024
VR
sS'promptness'
p1025
VP
sS'reworded'
p1026
VR
sS'delocalisation'
p1027
VD
sS'andalusians'
p1028
VAE
p1029
sS'millimetre'
p1030
VM
sS'practises'
p1031
VP
sS'korakas'
p1032
VK
sS'expediencies'
p1033
VIH
p1034
sS'cfsp'
p1035
VEH
p1036
sS'arta'
p1037
VAA
p1038
sS'sessional'
p1039
VS
sS'dadaist'
p1040
VD
sS'arte'
p1041
VAA
p1042
sS'dovetailing'
p1043
VD
sS'renewables'
p1044
VR
sS'spongiform'
p1045
VS
sS'derogation'
p1046
VD
sS'legislations'
p1047
VL
sS'paedophilia'
p1048
VP
sS'precariousness'
p1049
VP
sS'specialised'
p1050
VS
sS'legitimise'
p1051
VL
sS'eib'
p1052
VAY
p1053
sS'efterl'
p1054
VEH
p1055
sS'accessions'
p1056
VAH
p1057
sS'specialises'
p1058
VS
sS'prescriptive'
p1059
VP
sS'demilitarised'
p1060
VD
sS'stabilising'
p1061
VS
sS'caprine'
p1062
VK
sS'echternach'
p1063
VEH
p1064
sS'blak'
p1065
VB
sS'trentin'
p1066
VT
sS'quaestors'
p1067
VK
sS'litres'
p1068
VL
sS'clientelism'
p1069
VK
sS'turmes'
p1070
VT
sS'geostrategic'
p1071
VJH
p1072
sS'pau'
p1073
VP
sS'ultimum'
p1074
VAH
p1075
sS'enquiries'
p1076
VEH
p1077
sS'putin'
p1078
VP
sS'legitimises'
p1079
VL
sS'riis'
p1080
VR
sS'dogmatisers'
p1081
VD
sS'ronique'
p1082
VR
sS'despatched'
p1083
VD
sS'sahrawi'
p1084
VS
sS'uen'
p1085
VY
sS'ois'
p1086
VOY
p1087
sS'legitimised'
p1088
VL
sS'pures'
p1089
VP
sS'politicisation'
p1090
VP
sS'biotopes'
p1091
VB
sS'nchez'
p1092
VN
sS'elles'
p1093
VEH
p1094
sS'taxifolia'
p1095
VT
sS'frontispiece'
p1096
VF
sS'rewording'
p1097
VR
sS'grappa'
p1098
VG
sS'renationalised'
p1099
VR
sS'gdp'
p1100
VJH
p1101
sS'anthropometric'
p1102
VAE
p1103
sS'comitology'
p1104
VK
sS'parez'
p1105
VP
sS'criminalise'
p1106
VK
sS'minimised'
p1107
VM
sS'fvo'
p1108
VF
sS'xxviiith'
p1109
VS
sS'euros'
p1110
VY
sS'preventatively'
p1111
VP
sS'favouring'
p1112
VF
sS'bowis'
p1113
VB
sS'legitimisation'
p1114
VL
sS'roissy'
p1115
VR
sS'countrywomen'
p1116
VK
sS'culinaire'
p1117
VK
sS'offence'
p1118
VAH
p1119
sS'fallowing'
p1120
VF
sS'gra'
p1121
VG
sS'pse'
p1122
VS
sS'basest'
p1123
VB
sS'legalised'
p1124
VL
sS'penalised'
p1125
VP
sS'directorates'
p1126
VD
sS'montesquieu'
p1127
VM
sS'institutionalisation'
p1128
VIH
p1129
sS'gratifyingly'
p1130
VG
sS'tajo'
p1131
VT
sS'fulfil'
p1132
VF
sS'putrefaction'
p1133
VP
sS'neutralised'
p1134
VN
sS'csfs'
p1135
VEH
p1136
sS'cr'
p1137
VK
sS'complementarity'
p1138
VK
sS'competences'
p1139
VK
sS'dissociated'
p1140
VD
sS'centralised'
p1141
VS
sS'ddr'
p1142
VD
sS'defenceless'
p1143
VD
sS'reorientated'
p1144
VR
sS'antipathetic'
p1145
VAE
p1146
sS'aglietta'
p1147
VAA
p1148
sS'angelilli'
p1149
VAA
p1150
sS'decentralise'
p1151
VD
sS'teleworking'
p1152
VT
sS'tdi'
p1153
VT
sS'valletta'
p1154
VV
sS'contrario'
p1155
VK
sS'carefulness'
p1156
VK
sS'pluralist'
p1157
VP
sS'forgetfulness'
p1158
VF
sS'rauf'
p1159
VR
sS'caulerpa'
p1160
VK
sS'turkistan'
p1161
VT
sS'coincineration'
p1162
VK
sS'confederations'
p1163
VK
sS'acs'
p1164
VAE
p1165
sS'delimitation'
p1166
VD
sS'acp'
p1167
VAE
p1168
sS'scandalously'
p1169
VS
sS'albacete'
p1170
VAE
p1171
sS'guigou'
p1172
VG
sS'garc'
p1173
VG
sS'derogating'
p1174
VD
sS'dipecho'
p1175
VD
sS'councillors'
p1176
VK
sS'dustbins'
p1177
VD
sS'stabilisation'
p1178
VS
sS'het'
p1179
VHH
p1180
sS'eulogises'
p1181
VY
sS'scrs'
p1182
VS
sS'decentralising'
p1183
VD
sS'endeavouring'
p1184
VEH
p1185
sS'loi'
p1186
VL
sS'namhong'
p1187
VN
sS'dislocates'
p1188
VD
sS'preachifying'
p1189
VP
sS'labelling'
p1190
VL
sS'practised'
p1191
VP
sS'discriminations'
p1192
VD
sS'oversteps'
p1193
VOW
p1194
sS'roseira'
p1195
VR
sS'ecemis'
p1196
VAH
p1197
sS'scorning'
p1198
VS
sS'censures'
p1199
VS
sS'conakry'
p1200
VK
sS'usted'
p1201
VAH
p1202
sS'oostlander'
p1203
VUW
p1204
sS'300g'
p1205
VG
sS'buesa'
p1206
VB
sS'inflexibilities'
p1207
VIH
p1208
sS'organised'
p1209
VAO
p1210
sS'gonz'
p1211
VG
sS'subjugating'
p1212
VS
sS'twinnings'
p1213
VT
sS'schipol'
p1214
VS
sS'igc'
p1215
VAY
p1216
sS'stabilised'
p1217
VS
sS'poos'
p1218
VP
sS'otc'
p1219
VAO
p1220
sS'compounders'
p1221
VK
sS'deliveryman'
p1222
VD
sS'dishonour'
p1223
VD
sS'quelque'
p1224
VK
sS'a5'
p1225
VAE
p1226
sS'a4'
p1227
VAE
p1228
sS'recognise'
p1229
VR
sS'cermis'
p1230
VS
sS'redressed'
p1231
VR
sS'websites'
p1232
VW
sS'thors'
p1233
VDH
p1234
sS'opportunely'
p1235
VAA
p1236
sS'rezala'
p1237
VR
sS'coreper'
p1238
VK
sS'ivoire'
p1239
VIH
p1240
sS'sch'
p1241
VSH
p1242
sS'unrestrainable'
p1243
VAH
p1244
sS'levelling'
p1245
VL
sS'overexploiting'
p1246
VOW
p1247
sS'moratinos'
p1248
VM
sS'fiducia'
p1249
VF
sS'tain'
p1250
VT
sS'adana'
p1251
VAA
p1252
sS'1930s'
p1253
VAH
p1254
sS'driftnets'
p1255
VD
sS'tranquillity'
p1256
VT
sS'homepage'
p1257
VHH
p1258
sS'endogenous'
p1259
VEH
p1260
sS'subsidiarity'
p1261
VS
sS'weshalb'
p1262
VW
sS'regularise'
p1263
VR
sS'acidifying'
p1264
VAH
p1265
sS'alleanza'
p1266
VAA
p1267
sS'offal'
p1268
VAH
p1269
sS'24th'
p1270
VAH
p1271
sS'generalised'
p1272
VJH
p1273
sS'pigmeat'
p1274
VP
sS'katiforis'
p1275
VK
sS'17th'
p1276
VAH
p1277
sS'marvellous'
p1278
VM
sS'ageing'
p1279
VAH
p1280
sS'ge'
p1281
VJH
p1282
sS'rengie'
p1283
VR
sS'20th'
p1284
VAH
p1285
sS'overstretched'
p1286
VOW
p1287
sS'brucellosis'
p1288
VB
sS'communitarisation'
p1289
VK
sS'husbanded'
p1290
VHH
p1291
sS'honourably'
p1292
VAA
p1293
sS'denouncement'
p1294
VD
sS'reactivation'
p1295
VR
sS'timescales'
p1296
VT
sS'honourable'
p1297
VAA
p1298
sS'rato'
p1299
VR
sS'titley'
p1300
VT
sS'provan'
p1301
VP
sS'billposters'
p1302
VB
sS'teu'
p1303
VT
sS'paralyse'
p1304
VP
sS'theonas'
p1305
VTH
p1306
sS'ohne'
p1307
VOW
p1308
sS'abc'
p1309
VAE
p1310
sS'sua'
p1311
VS
sS'abh'
p1312
VAE
p1313
sS'thorning'
p1314
VTH
p1315
sS'correcta'
p1316
VK
sS'abm'
p1317
VAE
p1318
sS'carpegna'
p1319
VK
sS'reziproken'
p1320
VR
sS'passiveness'
p1321
VP
sS'vall'
p1322
VV
sS'rgensen'
p1323
VR
sS'seiten'
p1324
VS
sS'favourably'
p1325
VF
sS'behaviour'
p1326
VB
sS'favourable'
p1327
VF
sS'encephalopathies'
p1328
VEH
p1329
sS'emancipatory'
p1330
VAH
p1331
sS'eurodac'
p1332
VY
sS'osce'
p1333
VAO
p1334
sS'wogau'
p1335
VW
sS'50s'
p1336
VAH
p1337
sS'resourced'
p1338
VR
sS'hilfen'
p1339
VHH
p1340
sS'euratom'
p1341
VY
sS'rugovo'
p1342
VR
sS'utilisation'
p1343
VY
sS'collation'
p1344
VK
sS'2000s'
p1345
VAH
p1346
sS'vit'
p1347
VV
sS'tesauro'
p1348
VT
sS'executable'
p1349
VEH
p1350
sS'intersectoral'
p1351
VIH
p1352
sS'wijkman'
p1353
VW
sS'oecd'
p1354
VOW
p1355
sS'budgetisation'
p1356
VB
sS'doubtlessly'
p1357
VD
sS'voggenhuber'
p1358
VV
sS'underprivileged'
p1359
VAH
p1360
sS'demining'
p1361
VD
sS'auvergne'
p1362
VOW
p1363
sS'uncomprehending'
p1364
VAH
p1365
sS'situ'
p1366
VS
sS'acheneau'
p1367
VAH
p1368
sS'cofinanced'
p1369
VK
sS'aspirational'
p1370
VAE
p1371
sS'kla'
p1372
VK
sS'klm'
p1373
VK
sS'sociale'
p1374
VS
sS'revitalising'
p1375
VR
sS'g7'
p1376
VAH
p1377
sS'subsidisation'
p1378
VS
sS'infectivity'
p1379
VIH
p1380
sS'dubiously'
p1381
VD
sS'publicise'
p1382
VP
sS'eaggf'
p1383
VIY
p1384
sS'casaca'
p1385
VK
sS'csf'
p1386
VEH
p1387
sS'unsystematically'
p1388
VAH
p1389
sS'refoulement'
p1390
VR
sS'csu'
p1391
VS
sS'lancker'
p1392
VL
sS'ssen'
p1393
VS
sS'rebalance'
p1394
VR
sS'fp'
p1395
VF
sS'fr'
p1396
VF
sS'inconceivably'
p1397
VIH
p1398
sS'limpopo'
p1399
VL
sS'ff'
p1400
VF
sS'pharmaceutiques'
p1401
VF
sS'conditio'
p1402
VK
sS'misnamed'
p1403
VM
sS'neuwerk'
p1404
VN
sS'misanthropic'
p1405
VM
sS'essere'
p1406
VEH
p1407
sS'unreservedly'
p1408
VAH
p1409
sS'lepos'
p1410
VL
sS'skilful'
p1411
VS
sS'isd'
p1412
VAY
p1413
sS'sebasti'
p1414
VS
sS'itl'
p1415
VIH
p1416
sS'traceability'
p1417
VT
sS'khmelnitsky'
p1418
VK
sS'blokland'
p1419
VB
sS'uctis'
p1420
VAH
p1421
sS'ruijten'
p1422
VR
sS'roadworthy'
p1423
VR
sS'ffh'
p1424
VF
sS'telluric'
p1425
VT
sS'factortame'
p1426
VF
sS'flimsier'
p1427
VF
sS'menceau'
p1428
VM
sS'labours'
p1429
VL
sS'unpolluted'
p1430
VAH
p1431
sS'mainstreamed'
p1432
VM
sS'secondment'
p1433
VS
sS'bendit'
p1434
VB
sS'straitjacketed'
p1435
VS
sS'forbear'
p1436
VF
sS'gmos'
p1437
VM
sS'reordered'
p1438
VR
sS'ceo'
p1439
VS
sS'cen'
p1440
VS
sS'cem'
p1441
VS
sS'impostures'
p1442
VIH
p1443
sS'huhne'
p1444
VHH
p1445
sS'ortuondo'
p1446
VAO
p1447
sS'cercas'
p1448
VS
sS'2a'
p1449
VIY
p1450
sS'authorisation'
p1451
VAO
p1452
sS'fense'
p1453
VF
sS'vatanen'
p1454
VV
sS'wasn'
p1455
VW
sS'exclusiveness'
p1456
VIH
p1457
sS'organises'
p1458
VAO
p1459
sS'366a'
p1460
VD
sS'criminalisation'
p1461
VK
sS'synchronised'
p1462
VS
sS'todo'
p1463
VT
sS'shamefaced'
p1464
VSH
p1465
sS'meijer'
p1466
VM
sS'realising'
p1467
VR
sS'jesuitical'
p1468
VJH
p1469
sS'abdications'
p1470
VAE
p1471
sS'doddle'
p1472
VD
sS'reorganised'
p1473
VR
sS'leavers'
p1474
VL
sS'wadden'
p1475
VW
sS'brovina'
p1476
VB
sS'beurre'
p1477
VB
sS'stigmatises'
p1478
VS
sS'tesiegel'
p1479
VT
sS'housebound'
p1480
VHH
p1481
sS'organising'
p1482
VAO
p1483
sS'ispa'
p1484
VAY
p1485
sS'baringdorf'
p1486
VB
sS'oligarchies'
p1487
VAA
p1488
sS'oisin'
p1489
VOY
p1490
sS'marfil'
p1491
VM
sS'ruination'
p1492
VR
sS'krarup'
p1493
VK
sS'shoah'
p1494
VSH
p1495
sS'responsibilisation'
p1496
VR
sS'ouvri'
p1497
VUW
p1498
sS'rhinotracheitis'
p1499
VR
sS'xenophobe'
p1500
VZ
sS'harbours'
p1501
VHH
p1502
sS'symbolised'
p1503
VS
sS'avec'
p1504
VAA
p1505
sS'lagendijk'
p1506
VL
sS'symbolises'
p1507
VS
sS'forevermore'
p1508
VF
sS'fruitfully'
p1509
VF
sS'overcautious'
p1510
VOW
p1511
sS'subsidise'
p1512
VS
sS'contre'
p1513
VK
sS'uncultured'
p1514
VAH
p1515
sS'mudflat'
p1516
VM
sS'geremek'
p1517
VJH
p1518
sS'standardising'
p1519
VS
sS'zimeray'
p1520
VZ
sS'refilling'
p1521
VR
sS'cosv'
p1522
VK
sS'submissively'
p1523
VS
sS'aan'
p1524
VAA
p1525
sS'dans'
p1526
VD
sS'hoti'
p1527
VHH
p1528
sS'reorganisations'
p1529
VR
sS'wastage'
p1530
VW
sS'galit'
p1531
VG
sS'passant'
p1532
VP
sS'prefigure'
p1533
VP
sS'homeworking'
p1534
VHH
p1535
sS'awoken'
p1536
VAH
p1537
sS'reorganisation'
p1538
VR
sS'larcher'
p1539
VL
sS'kartellamt'
p1540
VK
sS'transboundary'
p1541
VT
sS'bovines'
p1542
VB
sS'parece'
p1543
VP
sS'k2'
p1544
VK
sS'cfp'
p1545
VEH
p1546
sS'instatement'
p1547
VIH
p1548
sS'efa'
p1549
VEH
p1550
sS'herri'
p1551
VHH
p1552
sS'efe'
p1553
VIY
p1554
sS'hotchpotch'
p1555
VHH
p1556
sS'corus'
p1557
VK
sS'diversed'
p1558
VD
sS'kratsa'
p1559
VK
sS'physico'
p1560
VF
sS'intergovernmentalisation'
p1561
VIH
p1562
sS'kg'
p1563
VG
sS'focussing'
p1564
VF
sS'penalisation'
p1565
VP
sS'km'
p1566
VK
sS'ltcm'
p1567
VL
sS'elucidating'
p1568
VAH
p1569
sS'retardants'
p1570
VR
sS'morillon'
p1571
VM
sS'expedients'
p1572
VIH
p1573
sS'vilamoura'
p1574
VV
sS'stepwise'
p1575
VS
sS'ecsc'
p1576
VEH
p1577
sS'betokens'
p1578
VB
sS'criticising'
p1579
VK
sS'trialogue'
p1580
VT
sS'hiv'
p1581
VHH
p1582
sS'ingushetia'
p1583
VIH
p1584
sS'evregenis'
p1585
VEH
p1586
sS'harwich'
p1587
VHH
p1588
sS'reorganise'
p1589
VR
sS'ceecs'
p1590
VS
sS'unua'
p1591
VAH
p1592
sS'afsj'
p1593
VAE
p1594
sS'rensen'
p1595
VR
sS'sustainably'
p1596
VS
sS'irresolvable'
p1597
VIH
p1598
sS'carlotti'
p1599
VK
sS'fyrom'
p1600
VF
sS'flexibilisation'
p1601
VF
sS'laan'
p1602
VL
sS'hexavalent'
p1603
VHH
p1604
sS'bedingungen'
p1605
VB
sS'cherrypick'
p1606
VCH
p1607
sS'quecedo'
p1608
VK
sS'eurosceptics'
p1609
VY
sS'pvc'
p1610
VK
sS'conjuncture'
p1611
VK
sS'sem'
p1612
VS
sS'giorgos'
p1613
VJH
p1614
sS'sek'
p1615
VS
sS'insidiously'
p1616
VIH
p1617
sS'unacknowledged'
p1618
VAH
p1619
sS'timeworn'
p1620
VT
sS'backhandedness'
p1621
VB
sS'fundability'
p1622
VF
sS'rachidi'
p1623
VR
sS'verts'
p1624
VV
sS'morgantini'
p1625
VM
sS'baltas'
p1626
VB
sS'democratisation'
p1627
VD
sS'misdemeanours'
p1628
VM
sS'hecke'
p1629
VHH
p1630
sS'rightholders'
p1631
VR
sS'pedagogic'
p1632
VP
sS'randzio'
p1633
VR
sS'tropospheric'
p1634
VT
sS'gmo'
p1635
VM
sS'windedness'
p1636
VW
sS'inquisitorial'
p1637
VIH
p1638
sS'weitergef'
p1639
VV
sS'busquin'
p1640
VB
sS'lacaci'
p1641
VL
sS'nikitin'
p1642
VN
sS'behoves'
p1643
VB
sS'retable'
p1644
VR
sS'tauern'
p1645
VT
sS'mg'
p1646
VEH
p1647
sS'viout'
p1648
VV
sS'subsidised'
p1649
VS
sS'olle'
p1650
VAA
p1651
sS'furanes'
p1652
VF
sS'fibres'
p1653
VF
sS'revolutionising'
p1654
VR
sS'pr'
p1655
VP
sS'pt'
p1656
VEY
p1657
sS'unavowed'
p1658
VAH
p1659
sS'brushstrokes'
p1660
VB
sS'frassoni'
p1661
VF
sS'cornillet'
p1662
VK
sS'favelas'
p1663
VF
sS'1950s'
p1664
VAH
p1665
sS'ultraliberal'
p1666
VAH
p1667
sS'elst'
p1668
VEH
p1669
sS'schori'
p1670
VS
sS'oberbayern'
p1671
VAA
p1672
sS'raouf'
p1673
VR
sS'mla'
p1674
VM
sS'laxness'
p1675
VL
sS'volksunie'
p1676
VV
sS'milie'
p1677
VM
sS'rigour'
p1678
VR
sS'governability'
p1679
VG
sS'mpla'
p1680
VM
sS'elucidation'
p1681
VAH
p1682
sS'marginalise'
p1683
VM
sS'rationalising'
p1684
VR
sS'dg1'
p1685
VD
sS'lacklustre'
p1686
VL
sS'welshman'
p1687
VW
sS'lvaro'
p1688
VL
sS'quadras'
p1689
VK
sS'centralisation'
p1690
VS
sS'constitutionalisation'
p1691
VK
sS'thoughtlessly'
p1692
VTH
p1693
sS'sightedness'
p1694
VS
sS'rambouillet'
p1695
VR
sS'scientifiques'
p1696
VS
sS'remits'
p1697
VR
sS'liberalised'
p1698
VL
sS'liba'
p1699
VL
sS'marset'
p1700
VM
sS'padania'
p1701
VP
sS'fulfilment'
p1702
VF
sS'dgs'
p1703
VJH
p1704
sS'haarder'
p1705
VHH
p1706
sS'gsp'
p1707
VZ
sS'prioritised'
p1708
VP
sS'globalised'
p1709
VG
sS'forestation'
p1710
VF
sS'prioritises'
p1711
VP
sS'mobilising'
p1712
VM
sS'scaremongering'
p1713
VS
sS'gsm'
p1714
VJH
p1715
sS'fraisse'
p1716
VF
sS'feira'
p1717
VF
sS'typologies'
p1718
VT
sS'rechar'
p1719
VR
sS'alpes'
p1720
VAH
p1721
sS'ngigkeit'
p1722
VG
sS'nestl'
p1723
VN
sS'sheepmeat'
p1724
VSH
p1725
sS'dures'
p1726
VD
sS'calibre'
p1727
VK
sS'3and'
p1728
VAA
p1729
sS'47th'
p1730
VAH
p1731
sS'coastguards'
p1732
VK
sS'erikas'
p1733
VEH
p1734
sS'ammokhostos'
p1735
VAE
p1736
sS'aggregation'
p1737
VAE
p1738
sS'rling'
p1739
VR
sS'monika'
p1740
VM
sS'cadou'
p1741
VK
sS'timetabling'
p1742
VT
sS'microcredit'
p1743
VM
sS'aridity'
p1744
VER
p1745
sS'harmonising'
p1746
VHH
p1747
sS'abattoirs'
p1748
VAH
p1749
sS'pirker'
p1750
VP
sS'eea'
p1751
VIY
p1752
sS'summarise'
p1753
VS
sS'eec'
p1754
VIY
p1755
sS'uncompromised'
p1756
VAH
p1757
sS'wombs'
p1758
VW
sS'urba'
p1759
VER
p1760
sS'30s'
p1761
VAH
p1762
sS'metres'
p1763
VM
sS'representativeness'
p1764
VR
sS'b5'
p1765
VB
sS'b7'
p1766
VB
sS'b1'
p1767
VB
sS'b2'
p1768
VB
sS'publica'
p1769
VP
sS'30a'
p1770
VD
sS'suanzes'
p1771
VS
sS'sud'
p1772
VS
sS'begrudges'
p1773
VB
sS'tampere'
p1774
VT
sS'attac'
p1775
VEY
p1776
sS'morbihan'
p1777
VM
sS'proc'
p1778
VP
sS'faslane'
p1779
VF
sS'icrc'
p1780
VAY
p1781
sS'neutre'
p1782
VN
sS'interpretative'
p1783
VIH
p1784
sS'employability'
p1785
VEH
p1786
sS'br'
p1787
VB
sS'analysing'
p1788
VAE
p1789
sS'uncompromisingly'
p1790
VAH
p1791
sS'megalomaniacs'
p1792
VM
sS'esterno'
p1793
VEH
p1794
sS'sukarnoputri'
p1795
VS
sS'cossutta'
p1796
VK
sS'wherefores'
p1797
VHH
p1798
sS'trittin'
p1799
VT
sS'whiteboard'
p1800
VHH
p1801
sS'ndez'
p1802
VN
sS'repulsion'
p1803
VR
sS'unsorted'
p1804
VAH
p1805
sS'nder'
p1806
VN
sS'idc'
p1807
VAY
p1808
sS'akkuyu'
p1809
VAE
p1810
sS'56th'
p1811
VAH
p1812
sS'elorza'
p1813
VEH
p1814
sS'legalise'
p1815
VL
sS'hudghton'
p1816
VHH
p1817
sS'papoutsis'
p1818
VP
sS'derogations'
p1819
VD
sS'plantin'
p1820
VP
sS'realisation'
p1821
VR
sS'visae'
p1822
VV
sS'vigour'
p1823
VV
sS'maaten'
p1824
VM
sS'waffen'
p1825
VW
sS'lldc'
p1826
VS
sS'falun'
p1827
VF
sS'abovementioned'
p1828
VAH
p1829
sS'quetzalcoatl'
p1830
VK
sS'bazin'
p1831
VB
sS'holidaymakers'
p1832
VHH
p1833
sS'bluefin'
p1834
VB
sS'swiebel'
p1835
VS
sS'devolving'
p1836
VD
sS'elnosa'
p1837
VEH
p1838
sS'monnet'
p1839
VM
sS'jonckheer'
p1840
VHH
p1841
sS'ludford'
p1842
VL
sS'governo'
p1843
VG
sS'maximised'
p1844
VM
sS'svend'
p1845
VS
sS'hrkop'
p1846
VHH
p1847
sS'sixthly'
p1848
VS
sS'posidonia'
p1849
VP
sS'agronomic'
p1850
VAH
p1851
sS'cis'
p1852
VS
sS'erkki'
p1853
VER
p1854
sS'feasibilities'
p1855
VF
sS'cip'
p1856
VS
sS'nsch'
p1857
VN
sS'maximises'
p1858
VM
sS'uk'
p1859
VAH
p1860
sS'sapard'
p1861
VS
sS'rostock'
p1862
VR
sS'polarised'
p1863
VP
sS'euroworks'
p1864
VY
sS'scrapie'
p1865
VS
sS'kn'
p1866
VK
sS'weggen'
p1867
VW
sS'formalise'
p1868
VF
sS'nationalise'
p1869
VN
sS'bureaucratise'
p1870
VB
sS'exup'
p1871
VEH
p1872
sS'codex'
p1873
VK
sS'samuli'
p1874
VS
sS'individualisation'
p1875
VIH
p1876
sS'multipliers'
p1877
VM
sS'eldr'
p1878
VEH
p1879
sS'priori'
p1880
VP
sS'computerised'
p1881
VK
sS'voinet'
p1882
VV
sS'organise'
p1883
VAO
p1884
sS'pintassilgo'
p1885
VP
sS'berthing'
p1886
VB
sS'korhola'
p1887
VK
sS'practicalities'
p1888
VP
sS'galvanised'
p1889
VG
sS'suchil'
p1890
VS
sS'overladen'
p1891
VOW
p1892
sS'digressive'
p1893
VD
sS'overlong'
p1894
VOW
p1895
sS'holey'
p1896
VHH
p1897
sS'flautre'
p1898
VF
sS'superstate'
p1899
VS
sS'utilised'
p1900
VY
sS'neighbouring'
p1901
VN
sS'superannuated'
p1902
VS
sS'unef'
p1903
VUW
p1904
sS'communautaire'
p1905
VK
sS'sclope'
p1906
VS
sS'edf'
p1907
VEH
p1908
sS'gr'
p1909
VG
sS'edd'
p1910
VEH
p1911
sS'denktash'
p1912
VD
sS'rivne'
p1913
VR
sS'cofinance'
p1914
VK
sS'minore'
p1915
VM
sS'legitimising'
p1916
VL
sS'eurofederalist'
p1917
VY
sS'mollifying'
p1918
VM
sS'renunciations'
p1919
VR
sS'blindingly'
p1920
VB
sS'plcs'
p1921
VP
sS'demilitarising'
p1922
VD
sS'onesta'
p1923
VAH
p1924
sS'stregrennan'
p1925
VS
sS'enslaves'
p1926
VEH
p1927
sS'spinelessness'
p1928
VS
sS'neighbourly'
p1929
VN
sS'revitalise'
p1930
VR
sS'vitorino'
p1931
VV
sS'g8'
p1932
VAH
p1933
sS'mitrovica'
p1934
VM
sS'wipo'
p1935
VW
sS'ruinously'
p1936
VR
sS'farrago'
p1937
VF
sS'insuperable'
p1938
VIH
p1939
sS'brovinas'
p1940
VB
sS'speroni'
p1941
VS
sS'reappearing'
p1942
VR
sS'kinsmen'
p1943
VK
sS'depositories'
p1944
VD
sS'flechard'
p1945
VF
sS'bleiben'
p1946
VB
sS'materialised'
p1947
VM
sS'ocha'
p1948
VAA
p1949
sS'cfi'
p1950
VIY
p1951
sS'mortalities'
p1952
VM
sS'raninsy'
p1953
VR
sS'cofinancing'
p1954
VK
sS'croo'
p1955
VK
sS'barnier'
p1956
VB
sS'zu'
p1957
VZ
sS'kouchner'
p1958
VK
sS'clich'
p1959
VK
sS'infrastrucutres'
p1960
VIH
p1961
sS'ukip'
p1962
VY
sS'calorific'
p1963
VK
sS'coccidiostats'
p1964
VK
sS'kreissl'
p1965
VK
sS'stedt'
p1966
VS
sS'3b'
p1967
VB
sS'pristina'
p1968
VP
sS'implementable'
p1969
VIH
p1970
sS'flavourings'
p1971
VF
sS'scepticism'
p1972
VS
sS'transhipment'
p1973
VT
sS'50th'
p1974
VAH
p1975
sS'herritarrok'
p1976
VHH
p1977
sS'tajani'
p1978
VT
sS'phonograms'
p1979
VF
sS'ambit'
p1980
VAE
p1981
sS'wiebenga'
p1982
VW
sS'lipietz'
p1983
VL
sS'haulier'
p1984
VHH
p1985
sS'lez'
p1986
VL
sS'commendably'
p1987
VK
sS'proscribing'
p1988
VP
sS'metre'
p1989
VM
sS'harmonisation'
p1990
VHH
p1991
sS'unestablished'
p1992
VAH
p1993
sS'flavour'
p1994
VF
sS'victimised'
p1995
VV
sS'taxman'
p1996
VT
sS'backhanders'
p1997
VB
sS'138a'
p1998
VD
sS'stenmarck'
p1999
VS
sS'michiel'
p2000
VM
sS'kurti'
p2001
VK
sS'apm'
p2002
VAE
p2003
sS'inhumanities'
p2004
VIH
p2005
sS'consignments'
p2006
VK
sS'usd'
p2007
VAH
p2008
sS'feo'
p2009
VF
sS'mobilisation'
p2010
VM
sS'extractive'
p2011
VIH
p2012
sS'congratulates'
p2013
VK
sS'sceptics'
p2014
VS
sS'piqu'
p2015
VP
sS'eutrophication'
p2016
VY
sS'assessable'
p2017
VAH
p2018
sS'nassauer'
p2019
VN
sS'contravening'
p2020
VK
sS'iii'
p2021
VIY
p2022
sS'immuration'
p2023
VIH
p2024
sS'lannoye'
p2025
VL
sS'unrivalled'
p2026
VAH
p2027
sS'entreprises'
p2028
VAA
p2029
sS'fulfils'
p2030
VF
sS'transmissible'
p2031
VT
sS'alia'
p2032
VAA
p2033
sS'moluccans'
p2034
VM
sS'votre'
p2035
VV
sS'exonerations'
p2036
VIH
p2037
sS'sinti'
p2038
VS
sS'vireaid'
p2039
VV
sS'bonemeal'
p2040
VB
sS'prioritise'
p2041
VP
sS'pretexts'
p2042
VP
sS'marginalising'
p2043
VM
sS'optimised'
p2044
VAA
p2045
sS'summery'
p2046
VS
sS'parlous'
p2047
VP
sS'dimitrakopoulos'
p2048
VD
sS'timetabled'
p2049
VT
sS'timeframes'
p2050
VT
sS'verheugen'
p2051
VV
sS'tacs'
p2052
VT
sS'reinstallation'
p2053
VR
sS'dockyards'
p2054
VD
sS'javette'
p2055
VZH
p2056
sS'marpol'
p2057
VM
sS'glasshouses'
p2058
VG
sS'npt'
p2059
VEH
p2060
sS'ultraliberalism'
p2061
VAH
p2062
sS'kindermann'
p2063
VK
sS'sidelong'
p2064
VS
sS'adjectival'
p2065
VAH
p2066
sS'hydrogeological'
p2067
VHH
p2068
sS'favourites'
p2069
VF
sS'bipartite'
p2070
VB
sS'politicised'
p2071
VP
sS'europeanised'
p2072
VY
sS'saramago'
p2073
VS
sS'savoyard'
p2074
VS
sS'compostela'
p2075
VK
sS'offences'
p2076
VAH
p2077
sS'thyself'
p2078
VTH
p2079
sS'hrad'
p2080
VHH
p2081
sS'finalising'
p2082
VF
sS'll'
p2083
VL
sS'equalise'
p2084
VIY
p2085
sS'sinecure'
p2086
VS
sS'puerta'
p2087
VP
sS'eieck'
p2088
VAY
p2089
sS'communitised'
p2090
VK
sS'eur'
p2091
VER
p2092
sS'unacceptability'
p2093
VAH
p2094
sS'emphasised'
p2095
VEH
p2096
sS'spelt'
p2097
VS
sS'aquacultural'
p2098
VAE
p2099
sS'emphasises'
p2100
VEH
p2101
sS'stabilise'
p2102
VS
sS'codetermination'
p2103
VK
sS'boetticher'
p2104
VB
sS'destabilisation'
p2105
VD
sS'kilometres'
p2106
VK
sS'expels'
p2107
VIH
p2108
sS'avocat'
p2109
VAE
p2110
sS'renationalise'
p2111
VR
sS'globalphobes'
p2112
VG
sS'sandb'
p2113
VS
sS'despots'
p2114
VD
sS'baulk'
p2115
VB
sS'outworking'
p2116
VAW
p2117
sS'tente'
p2118
VT
sS'casuistry'
p2119
VK
sS'sion'
p2120
VS
sS'gargani'
p2121
VG
sS'programmes'
p2122
VP
sS'ecofin'
p2123
VIH
p2124
sS'saviours'
p2125
VS
sS'scrapies'
p2126
VS
sS'multiannual'
p2127
VM
sS'liberalising'
p2128
VL
sS'favours'
p2129
VF
sS'siena'
p2130
VS
sS'cyanogen'
p2131
VS
sS'standardisation'
p2132
VS
sS'ece'
p2133
VEH
p2134
sS'ecb'
p2135
VEH
p2136
sS'piecyk'
p2137
VP
sS'undp'
p2138
VAH
p2139
sS'ecu'
p2140
VEH
p2141
sS'symbolise'
p2142
VS
sS'alchemists'
p2143
VAE
p2144
sS'zimmerling'
p2145
VZ
sS'supranationally'
p2146
VS
sS'klagenfurt'
p2147
VK
sS'interinstitutional'
p2148
VIH
p2149
sS'externalisation'
p2150
VIH
p2151
sS'prioritisation'
p2152
VP
sS'modernising'
p2153
VM
sS'thessaloniki'
p2154
VTH
p2155
sS'clamour'
p2156
VK
sS'fertiliser'
p2157
VF
sS'maccormick'
p2158
VM
sS'savour'
p2159
VS
sS'emas'
p2160
VEH
p2161
sS'echr'
p2162
VEH
p2163
sS'demoralised'
p2164
VD
sS'ponderously'
p2165
VP
sS'unabating'
p2166
VAH
p2167
sS'lom'
p2168
VL
sS'jarzembowski'
p2169
VJH
p2170
sS'macrofinancial'
p2171
VM
sS'itchen'
p2172
VIH
p2173
sS'spillages'
p2174
VS
sS'joaqu'
p2175
VJH
p2176
sS'blinkered'
p2177
VB
sS'peijs'
p2178
VP
sS'pronk'
p2179
VP
sS'papayannakis'
p2180
VP
sS'anaemia'
p2181
VAE
p2182
sS'aquavit'
p2183
VAH
p2184
sS'moluccas'
p2185
VM
sS'masochists'
p2186
VM
sS'inuits'
p2187
VIH
p2188
sS'postgraduate'
p2189
VP
sS'apologise'
p2190
VAH
p2191
sS'folias'
p2192
VF
sS'udb'
p2193
VAH
p2194
sS'pradier'
p2195
VP
sS'inestimable'
p2196
VIH
p2197
sS'wppt'
p2198
VW
sS'150g'
p2199
VG
sS'labourers'
p2200
VL
sS'popularised'
p2201
VP
sS'ber'
p2202
VB
sS'duisenberg'
p2203
VD
sS'berthu'
p2204
VB
sS'labouring'
p2205
VL
sS'arousa'
p2206
VER
p2207
sS'duping'
p2208
VD
sS'faim'
p2209
VF
sS'capitulating'
p2210
VK
sS'propuesta'
p2211
VP
sS'multipartite'
p2212
VM
sS'vlaamsblok'
p2213
VV
sS'recantations'
p2214
VR
sS'pretentiously'
p2215
VP
sS'iopcf'
p2216
VAY
p2217
sS'karamanou'
p2218
VK
sS'coresponsibility'
p2219
VK
sS'familiarise'
p2220
VF
sS'multifunctionality'
p2221
VM
sS'relativises'
p2222
VR
sS'bronislaw'
p2223
VB
sS'flagellation'
p2224
VF
sS'energise'
p2225
VEH
p2226
sS'formers'
p2227
VF
sS'instil'
p2228
VIH
p2229
sS'lutte'
p2230
VL
sS'haiders'
p2231
VHH
p2232
sS'salafranca'
p2233
VS
sS'seguro'
p2234
VS
sS'reconcilable'
p2235
VR
sS'noire'
p2236
VN
sS'underpins'
p2237
VAH
p2238
sS'sceptical'
p2239
VS
sS'regionality'
p2240
VR
sS'authorisations'
p2241
VAO
p2242
sS'succour'
p2243
VS
sS'ngl'
p2244
VEH
p2245
sS'xviiith'
p2246
VK
sS'noiz'
p2247
VN
sS'vlaams'
p2248
VV
sS'sensitised'
p2249
VS
sS'minimising'
p2250
VM
sS'finalised'
p2251
VF
sS'postulated'
p2252
VP
sS'democratising'
p2253
VD
sS'renationalisation'
p2254
VR
sS'tributyl'
p2255
VT
sS'tbt'
p2256
VT
sS'decentralisation'
p2257
VD
sS'regionalists'
p2258
VR
sS'ultraperipheral'
p2259
VAH
p2260
sS'unprejudiced'
p2261
VAH
p2262
sS'conglomerations'
p2263
VK
sS'exportation'
p2264
VEH
p2265
sS'transposition'
p2266
VT
sS'somport'
p2267
VS
sS'wilhelmshaven'
p2268
VW
sS'categorised'
p2269
VK
sS'gbp'
p2270
VB
sS'graa'
p2271
VG
sS'ohim'
p2272
VOW
p2273
sS'suominen'
p2274
VS
sS'irrefutably'
p2275
VIH
p2276
sS'pretence'
p2277
VP
sS'langenhagen'
p2278
VL
sS'btf'
p2279
VB
sS'mercifulness'
p2280
VM
sS'despoiled'
p2281
VD
sS'shepherdstown'
p2282
VSH
p2283
sS'bedevilled'
p2284
VB
sS'diese'
p2285
VD
sS'thoughtlessness'
p2286
VTH
p2287
sS'bedfordshire'
p2288
VB
sS'responsibilise'
p2289
VR
sS'globalisation'
p2290
VG
sS'americanically'
p2291
VAH
p2292
sS'unseaworthy'
p2293
VAH
p2294
sS'combated'
p2295
VK
sS'ld'
p2296
VAH
p2297
sS'cymru'
p2298
VS
sS'eta'
p2299
VIY
p2300
sS'utilising'
p2301
VY
sS'avil'
p2302
VAE
p2303
sS'cl'
p2304
VK
sS'authorised'
p2305
VAO
p2306
sS'maliakos'
p2307
VM
sS'fipol'
p2308
VF
sS'ce'
p2309
VS
sS'hm3'
p2310
VAH
p2311
sS'vend'
p2312
VV
sS'juger'
p2313
VJH
p2314
sS'normalisation'
p2315
VN
sS'uck'
p2316
VAH
p2317
sS'regenerative'
p2318
VR
sS'authorises'
p2319
VAO
p2320
sS'codecisions'
p2321
VK
sS'ecips'
p2322
VEH
p2323
sS'minimise'
p2324
VM
sS'externalising'
p2325
VIH
p2326
sS'manifestos'
p2327
VM
sS'exploiters'
p2328
VIH
p2329
sS'neighbour'
p2330
VN
sS'patriotisms'
p2331
VP
sS'mouskouri'
p2332
VM
sS'subparagraph'
p2333
VS
sS'frameworks'
p2334
VF
sS'synergistically'
p2335
VS
sS'intranet'
p2336
VIH
p2337
sS'backbenchers'
p2338
VB
sS'caudron'
p2339
VK
sS'galeote'
p2340
VG
sS'retabled'
p2341
VR
sS'hobbyhorse'
p2342
VHH
p2343
sS'monopolised'
p2344
VM
sS'kosovan'
p2345
VK
sS'biannually'
p2346
VB
sS'anthroprogenic'
p2347
VAE
p2348
sS'termism'
p2349
VT
sS'chapeau'
p2350
VSH
p2351
sS'vp'
p2352
VV
sS'pedalling'
p2353
VP
sS'kosovar'
p2354
VK
sS'philoxenia'
p2355
VF
sS'industrialisation'
p2356
VIH
p2357
sS'avc'
p2358
VAE
p2359
sS'rendaire'
p2360
VR
sS'justiciable'
p2361
VJH
p2362
sS'voivodina'
p2363
VV
sS'codecision'
p2364
VK
sS'docups'
p2365
VD
sS'fifthly'
p2366
VF
sS'brahim'
p2367
VB
sS'indivisibility'
p2368
VIH
p2369
sS'politicise'
p2370
VP
sS'garaud'
p2371
VG
sS'vilagarcia'
p2372
VV
sS'schr'
p2373
VS
sS'metamorphosing'
p2374
VM
sS'realises'
p2375
VR
sS'giorgios'
p2376
VJH
p2377
sS'colour'
p2378
VK
sS'underspent'
p2379
VAH
p2380
sS'herinneringen'
p2381
VHH
p2382
sS'kuckelkorn'
p2383
VK
sS'realised'
p2384
VR
sS'sourced'
p2385
VS
sS'juncker'
p2386
VJH
p2387
sS'poettering'
p2388
VP
sS'disrupters'
p2389
VD
sS'corruptibility'
p2390
VK
sS'crunchie'
p2391
VK
sS'antisemitism'
p2392
VAE
p2393
sS'hypocritically'
p2394
VHH
p2395
sS'adr'
p2396
VAE
p2397
sS'wallstr'
p2398
VW
sS'urbanisation'
p2399
VER
p2400
sS'nter'
p2401
VN
sS'cushnahan'
p2402
VK
sS'optimising'
p2403
VAA
p2404
sS'weu'
p2405
VW
sS'practise'
p2406
VP
sS'assistito'
p2407
VAH
p2408
sS'impositions'
p2409
VIH
p2410
sS'ectaa'
p2411
VEH
p2412
sS'normalise'
p2413
VN
sS'poggiolini'
p2414
VP
sS'meaningfulness'
p2415
VM
sS'gorostiaga'
p2416
VG
sS'marketeering'
p2417
VM
sS'supping'
p2418
VS
sS'madariaga'
p2419
VM
sS'realit'
p2420
VR
sS'hauliers'
p2421
VHH
p2422
sS'candu'
p2423
VK
sS'maghreb'
p2424
VM
sS'dutroux'
p2425
VD
sS'agusta'
p2426
VAA
p2427
sS'muscardini'
p2428
VM
sS'troposphere'
p2429
VT
sS'circuitously'
p2430
VS
sS'bizarrely'
p2431
VB
sS'thaci'
p2432
VTH
p2433
sS'abusively'
p2434
VAH
p2435
sS'desama'
p2436
VD
sS'transposing'
p2437
VT
sS'crewing'
p2438
VK
sS'rapkay'
p2439
VR
sS'14th'
p2440
VAH
p2441
sS'esf'
p2442
VEH
p2443
sS'esc'
p2444
VEH
p2445
sS'fudges'
p2446
VF
sS'esa'
p2447
VIY
p2448
sS'alkartasuna'
p2449
VAE
p2450
sS'analysed'
p2451
VAE
p2452
sS'sarre'
p2453
VS
sS'piggledy'
p2454
VP
sS'viviane'
p2455
VV
sS'kosovars'
p2456
VK
sS'zootechnical'
p2457
VZ
sS'chocoholics'
p2458
VCH
p2459
sS'transitive'
p2460
VT
sS'mammon'
p2461
VM
sS'mcduck'
p2462
VM
sS'localised'
p2463
VL
sS'unfavourable'
p2464
VAH
p2465
sS'alimentarius'
p2466
VAE
p2467
sS'disgracefully'
p2468
VD
sS'unfavourably'
p2469
VAH
p2470
sS'endeavours'
p2471
VEH
p2472
sS'desertification'
p2473
VD
sS'interethnic'
p2474
VIH
p2475
sS'liikanen'
p2476
VL
sS'rothley'
p2477
VR
sS'unwished'
p2478
VAH
p2479
sS'posselt'
p2480
VP
sS'dispensaries'
p2481
VD
sS'gretab'
p2482
VG
sS'institutionalising'
p2483
VIH
p2484
sS'finalisation'
p2485
VF
sS'demonising'
p2486
VD
sS'hm'
p2487
VAH
p2488
sS'bridgeheads'
p2489
VB
sS'wuori'
p2490
VW
sS'detestable'
p2491
VD
sS'macedonians'
p2492
VM
sS'mistranslation'
p2493
VM
sS'destabilise'
p2494
VD
sS'democratise'
p2495
VD
sS'ini'
p2496
VIY
p2497
sS'intradermal'
p2498
VIH
p2499
sS'youthstart'
p2500
VY
sS'bartho'
p2501
VB
sS'postmen'
p2502
VP
sS'decourri'
p2503
VD
sS'disinheriting'
p2504
VD
sS'oau'
p2505
VOW
p2506
sS'neighbourhood'
p2507
VN
sS'latterly'
p2508
VL
sS'standardise'
p2509
VS
sS'blameworthy'
p2510
VB
sS'1kg'
p2511
VG
sS'belder'
p2512
VB
sS'equalising'
p2513
VIY
p2514
sS'cheque'
p2515
VCH
p2516
sS'disjunction'
p2517
VD
sS'galvanise'
p2518
VG
sS'entreat'
p2519
VEH
p2520
sS'trakatellis'
p2521
VT
sS'queir'
p2522
VK
s.